Archive member included to satisfy reference by file (symbol)

d:/software/work/gcc-arm-none-eabi-10.3-2021.07/bin/../lib/gcc/arm-none-eabi/10.3.1/thumb/v7e-m+dp/hard\libgcc.a(_aeabi_uldivmod.o)
                              ./build/stm32h7xx_ll_lpuart.o (__aeabi_uldivmod)
d:/software/work/gcc-arm-none-eabi-10.3-2021.07/bin/../lib/gcc/arm-none-eabi/10.3.1/thumb/v7e-m+dp/hard\libgcc.a(_udivmoddi4.o)
                              d:/software/work/gcc-arm-none-eabi-10.3-2021.07/bin/../lib/gcc/arm-none-eabi/10.3.1/thumb/v7e-m+dp/hard\libgcc.a(_aeabi_uldivmod.o) (__udivmoddi4)
d:/software/work/gcc-arm-none-eabi-10.3-2021.07/bin/../lib/gcc/arm-none-eabi/10.3.1/thumb/v7e-m+dp/hard\libgcc.a(_dvmd_tls.o)
                              d:/software/work/gcc-arm-none-eabi-10.3-2021.07/bin/../lib/gcc/arm-none-eabi/10.3.1/thumb/v7e-m+dp/hard\libgcc.a(_aeabi_uldivmod.o) (__aeabi_ldiv0)
d:/software/work/gcc-arm-none-eabi-10.3-2021.07/bin/../lib/gcc/arm-none-eabi/10.3.1/../../../../arm-none-eabi/lib/thumb/v7e-m+dp/hard\libc.a(lib_a-atoi.o)
                              ./build/adc.o (atoi)
d:/software/work/gcc-arm-none-eabi-10.3-2021.07/bin/../lib/gcc/arm-none-eabi/10.3.1/../../../../arm-none-eabi/lib/thumb/v7e-m+dp/hard\libc.a(lib_a-exit.o)
                              d:/software/work/gcc-arm-none-eabi-10.3-2021.07/bin/../lib/gcc/arm-none-eabi/10.3.1/../../../../arm-none-eabi/lib/thumb/v7e-m+dp/hard/crt0.o (exit)
d:/software/work/gcc-arm-none-eabi-10.3-2021.07/bin/../lib/gcc/arm-none-eabi/10.3.1/../../../../arm-none-eabi/lib/thumb/v7e-m+dp/hard\libc.a(lib_a-impure.o)
                              d:/software/work/gcc-arm-none-eabi-10.3-2021.07/bin/../lib/gcc/arm-none-eabi/10.3.1/../../../../arm-none-eabi/lib/thumb/v7e-m+dp/hard\libc.a(lib_a-exit.o) (_global_impure_ptr)
d:/software/work/gcc-arm-none-eabi-10.3-2021.07/bin/../lib/gcc/arm-none-eabi/10.3.1/../../../../arm-none-eabi/lib/thumb/v7e-m+dp/hard\libc.a(lib_a-init.o)
                              d:/software/work/gcc-arm-none-eabi-10.3-2021.07/bin/../lib/gcc/arm-none-eabi/10.3.1/../../../../arm-none-eabi/lib/thumb/v7e-m+dp/hard/crt0.o (__libc_init_array)
d:/software/work/gcc-arm-none-eabi-10.3-2021.07/bin/../lib/gcc/arm-none-eabi/10.3.1/../../../../arm-none-eabi/lib/thumb/v7e-m+dp/hard\libc.a(lib_a-memcmp.o)
                              ./build/shell.o (memcmp)
d:/software/work/gcc-arm-none-eabi-10.3-2021.07/bin/../lib/gcc/arm-none-eabi/10.3.1/../../../../arm-none-eabi/lib/thumb/v7e-m+dp/hard\libc.a(lib_a-memcpy.o)
                              ./build/stm32h7xx_hal_fdcan.o (memcpy)
d:/software/work/gcc-arm-none-eabi-10.3-2021.07/bin/../lib/gcc/arm-none-eabi/10.3.1/../../../../arm-none-eabi/lib/thumb/v7e-m+dp/hard\libc.a(lib_a-memset.o)
                              d:/software/work/gcc-arm-none-eabi-10.3-2021.07/bin/../lib/gcc/arm-none-eabi/10.3.1/../../../../arm-none-eabi/lib/thumb/v7e-m+dp/hard/crt0.o (memset)
d:/software/work/gcc-arm-none-eabi-10.3-2021.07/bin/../lib/gcc/arm-none-eabi/10.3.1/../../../../arm-none-eabi/lib/thumb/v7e-m+dp/hard\libc.a(lib_a-strcat.o)
                              ./build/sensor.o (strcat)
d:/software/work/gcc-arm-none-eabi-10.3-2021.07/bin/../lib/gcc/arm-none-eabi/10.3.1/../../../../arm-none-eabi/lib/thumb/v7e-m+dp/hard\libc.a(lib_a-strcmp.o)
                              ./build/dfs.o (strcmp)
d:/software/work/gcc-arm-none-eabi-10.3-2021.07/bin/../lib/gcc/arm-none-eabi/10.3.1/../../../../arm-none-eabi/lib/thumb/v7e-m+dp/hard\libc.a(lib_a-strcpy.o)
                              ./build/shell.o (strcpy)
d:/software/work/gcc-arm-none-eabi-10.3-2021.07/bin/../lib/gcc/arm-none-eabi/10.3.1/../../../../arm-none-eabi/lib/thumb/v7e-m+dp/hard\libc.a(lib_a-strlen.o)
                              ./build/dfs.o (strlen)
d:/software/work/gcc-arm-none-eabi-10.3-2021.07/bin/../lib/gcc/arm-none-eabi/10.3.1/../../../../arm-none-eabi/lib/thumb/v7e-m+dp/hard\libc.a(lib_a-strncmp.o)
                              ./build/dfs_fs.o (strncmp)
d:/software/work/gcc-arm-none-eabi-10.3-2021.07/bin/../lib/gcc/arm-none-eabi/10.3.1/../../../../arm-none-eabi/lib/thumb/v7e-m+dp/hard\libc.a(lib_a-strncpy.o)
                              ./build/shell.o (strncpy)
d:/software/work/gcc-arm-none-eabi-10.3-2021.07/bin/../lib/gcc/arm-none-eabi/10.3.1/../../../../arm-none-eabi/lib/thumb/v7e-m+dp/hard\libc.a(lib_a-strrchr.o)
                              ./build/dfs_file.o (strrchr)
d:/software/work/gcc-arm-none-eabi-10.3-2021.07/bin/../lib/gcc/arm-none-eabi/10.3.1/../../../../arm-none-eabi/lib/thumb/v7e-m+dp/hard\libc.a(lib_a-strtol.o)
                              d:/software/work/gcc-arm-none-eabi-10.3-2021.07/bin/../lib/gcc/arm-none-eabi/10.3.1/../../../../arm-none-eabi/lib/thumb/v7e-m+dp/hard\libc.a(lib_a-atoi.o) (_strtol_r)
d:/software/work/gcc-arm-none-eabi-10.3-2021.07/bin/../lib/gcc/arm-none-eabi/10.3.1/../../../../arm-none-eabi/lib/thumb/v7e-m+dp/hard\libc.a(lib_a-__call_atexit.o)
                              d:/software/work/gcc-arm-none-eabi-10.3-2021.07/bin/../lib/gcc/arm-none-eabi/10.3.1/../../../../arm-none-eabi/lib/thumb/v7e-m+dp/hard\libc.a(lib_a-exit.o) (__call_exitprocs)
d:/software/work/gcc-arm-none-eabi-10.3-2021.07/bin/../lib/gcc/arm-none-eabi/10.3.1/../../../../arm-none-eabi/lib/thumb/v7e-m+dp/hard\libc.a(lib_a-atexit.o)
                              d:/software/work/gcc-arm-none-eabi-10.3-2021.07/bin/../lib/gcc/arm-none-eabi/10.3.1/../../../../arm-none-eabi/lib/thumb/v7e-m+dp/hard\libc.a(lib_a-__call_atexit.o) (atexit)
d:/software/work/gcc-arm-none-eabi-10.3-2021.07/bin/../lib/gcc/arm-none-eabi/10.3.1/../../../../arm-none-eabi/lib/thumb/v7e-m+dp/hard\libc.a(lib_a-ctype_.o)
                              d:/software/work/gcc-arm-none-eabi-10.3-2021.07/bin/../lib/gcc/arm-none-eabi/10.3.1/../../../../arm-none-eabi/lib/thumb/v7e-m+dp/hard\libc.a(lib_a-strtol.o) (_ctype_)
d:/software/work/gcc-arm-none-eabi-10.3-2021.07/bin/../lib/gcc/arm-none-eabi/10.3.1/../../../../arm-none-eabi/lib/thumb/v7e-m+dp/hard\libc.a(lib_a-errno.o)
                              d:/software/work/gcc-arm-none-eabi-10.3-2021.07/bin/../lib/gcc/arm-none-eabi/10.3.1/../../../../arm-none-eabi/lib/thumb/v7e-m+dp/hard\libc.a(lib_a-strtol.o) (__errno)
d:/software/work/gcc-arm-none-eabi-10.3-2021.07/bin/../lib/gcc/arm-none-eabi/10.3.1/../../../../arm-none-eabi/lib/thumb/v7e-m+dp/hard\libc.a(lib_a-fini.o)
                              d:/software/work/gcc-arm-none-eabi-10.3-2021.07/bin/../lib/gcc/arm-none-eabi/10.3.1/../../../../arm-none-eabi/lib/thumb/v7e-m+dp/hard\libc.a(lib_a-__call_atexit.o) (__libc_fini_array)
d:/software/work/gcc-arm-none-eabi-10.3-2021.07/bin/../lib/gcc/arm-none-eabi/10.3.1/../../../../arm-none-eabi/lib/thumb/v7e-m+dp/hard\libc.a(lib_a-lock.o)
                              d:/software/work/gcc-arm-none-eabi-10.3-2021.07/bin/../lib/gcc/arm-none-eabi/10.3.1/../../../../arm-none-eabi/lib/thumb/v7e-m+dp/hard\libc.a(lib_a-__call_atexit.o) (__retarget_lock_acquire_recursive)
d:/software/work/gcc-arm-none-eabi-10.3-2021.07/bin/../lib/gcc/arm-none-eabi/10.3.1/../../../../arm-none-eabi/lib/thumb/v7e-m+dp/hard\libc.a(lib_a-strchr.o)
                              d:/software/work/gcc-arm-none-eabi-10.3-2021.07/bin/../lib/gcc/arm-none-eabi/10.3.1/../../../../arm-none-eabi/lib/thumb/v7e-m+dp/hard\libc.a(lib_a-strrchr.o) (strchr)
d:/software/work/gcc-arm-none-eabi-10.3-2021.07/bin/../lib/gcc/arm-none-eabi/10.3.1/../../../../arm-none-eabi/lib/thumb/v7e-m+dp/hard\libc.a(lib_a-__atexit.o)
                              d:/software/work/gcc-arm-none-eabi-10.3-2021.07/bin/../lib/gcc/arm-none-eabi/10.3.1/../../../../arm-none-eabi/lib/thumb/v7e-m+dp/hard\libc.a(lib_a-atexit.o) (__register_exitproc)

Memory Configuration

Name             Origin             Length             Attributes
FLASH            0x08000000         0x00200000         xr
RAM              0x20000000         0x00020000         xrw
ITCMRAM          0x00000000         0x00010000         xrw
*default*        0x00000000         0xffffffff

Linker script and memory map

LOAD d:/software/work/gcc-arm-none-eabi-10.3-2021.07/bin/../lib/gcc/arm-none-eabi/10.3.1/thumb/v7e-m+dp/hard/crti.o
LOAD d:/software/work/gcc-arm-none-eabi-10.3-2021.07/bin/../lib/gcc/arm-none-eabi/10.3.1/thumb/v7e-m+dp/hard/crtbegin.o
LOAD d:/software/work/gcc-arm-none-eabi-10.3-2021.07/bin/../lib/gcc/arm-none-eabi/10.3.1/../../../../arm-none-eabi/lib/thumb/v7e-m+dp/hard/crt0.o
LOAD ./build/drv_sdio.o
LOAD ./build/drv_usart_v2.o
LOAD ./build/drv_soft_i2c.o
LOAD ./build/drv_gpio.o
LOAD ./build/drv_spi.o
LOAD ./build/drv_adc.o
LOAD ./build/drv_common.o
LOAD ./build/drv_fdcan.o
LOAD ./build/drv_flash_h7.o
LOAD ./build/system_stm32h7xx.o
LOAD ./build/stm32h7xx_ll_dma.o
LOAD ./build/stm32h7xx_hal_cryp.o
LOAD ./build/stm32h7xx_hal_hrtim.o
LOAD ./build/stm32h7xx_hal.o
LOAD ./build/stm32h7xx_hal_rcc_ex.o
LOAD ./build/stm32h7xx_hal_fdcan.o
LOAD ./build/stm32h7xx_hal_sd_ex.o
LOAD ./build/stm32h7xx_hal_hcd.o
LOAD ./build/stm32h7xx_hal_tim.o
LOAD ./build/stm32h7xx_hal_pcd.o
LOAD ./build/stm32h7xx_hal_dcmi.o
LOAD ./build/stm32h7xx_hal_usart.o
LOAD ./build/stm32h7xx_hal_crc.o
LOAD ./build/stm32h7xx_hal_opamp_ex.o
LOAD ./build/stm32h7xx_hal_dac.o
LOAD ./build/stm32h7xx_hal_pwr_ex.o
LOAD ./build/stm32h7xx_hal_cordic.o
LOAD ./build/stm32h7xx_hal_dsi.o
LOAD ./build/stm32h7xx_ll_adc.o
LOAD ./build/stm32h7xx_ll_swpmi.o
LOAD ./build/stm32h7xx_hal_msp_template.o
LOAD ./build/stm32h7xx_hal_opamp.o
LOAD ./build/stm32h7xx_hal_rcc.o
LOAD ./build/stm32h7xx_hal_exti.o
LOAD ./build/stm32h7xx_hal_sd.o
LOAD ./build/stm32h7xx_ll_lpuart.o
LOAD ./build/stm32h7xx_hal_eth.o
LOAD ./build/stm32h7xx_hal_i2s_ex.o
LOAD ./build/stm32h7xx_hal_dma2d.o
LOAD ./build/stm32h7xx_hal_i2c.o
LOAD ./build/stm32h7xx_hal_iwdg.o
LOAD ./build/stm32h7xx_hal_flash.o
LOAD ./build/stm32h7xx_hal_smartcard.o
LOAD ./build/stm32h7xx_hal_pwr.o
LOAD ./build/stm32h7xx_hal_rtc.o
LOAD ./build/stm32h7xx_hal_ramecc.o
LOAD ./build/stm32h7xx_ll_usart.o
LOAD ./build/stm32h7xx_hal_spdifrx.o
LOAD ./build/stm32h7xx_ll_crc.o
LOAD ./build/stm32h7xx_hal_mdios.o
LOAD ./build/stm32h7xx_hal_spi_ex.o
LOAD ./build/stm32h7xx_ll_cordic.o
LOAD ./build/stm32h7xx_hal_uart_ex.o
LOAD ./build/stm32h7xx_hal_dfsdm.o
LOAD ./build/stm32h7xx_hal_cortex.o
LOAD ./build/stm32h7xx_hal_hsem.o
LOAD ./build/stm32h7xx_ll_fmc.o
LOAD ./build/stm32h7xx_hal_rng_ex.o
LOAD ./build/stm32h7xx_hal_smartcard_ex.o
LOAD ./build/stm32h7xx_ll_crs.o
LOAD ./build/stm32h7xx_hal_lptim.o
LOAD ./build/stm32h7xx_ll_i2c.o
LOAD ./build/stm32h7xx_hal_comp.o
LOAD ./build/stm32h7xx_ll_gpio.o
LOAD ./build/stm32h7xx_hal_mmc.o
LOAD ./build/stm32h7xx_hal_spi.o
LOAD ./build/stm32h7xx_ll_rtc.o
LOAD ./build/stm32h7xx_hal_uart.o
LOAD ./build/stm32h7xx_hal_sdram.o
LOAD ./build/stm32h7xx_hal_wwdg.o
LOAD ./build/stm32h7xx_ll_pwr.o
LOAD ./build/stm32h7xx_hal_smbus_ex.o
LOAD ./build/stm32h7xx_hal_pssi.o
LOAD ./build/stm32h7xx_hal_rng.o
LOAD ./build/stm32h7xx_hal_flash_ex.o
LOAD ./build/stm32h7xx_ll_rcc.o
LOAD ./build/stm32h7xx_ll_usb.o
LOAD ./build/stm32h7xx_hal_irda.o
LOAD ./build/stm32h7xx_hal_nor.o
LOAD ./build/stm32h7xx_ll_exti.o
LOAD ./build/stm32h7xx_hal_smbus.o
LOAD ./build/stm32h7xx_ll_comp.o
LOAD ./build/stm32h7xx_hal_cec.o
LOAD ./build/stm32h7xx_ll_spi.o
LOAD ./build/stm32h7xx_ll_lptim.o
LOAD ./build/stm32h7xx_hal_dfsdm_ex.o
LOAD ./build/stm32h7xx_hal_dts.o
LOAD ./build/stm32h7xx_ll_hrtim.o
LOAD ./build/stm32h7xx_hal_dac_ex.o
LOAD ./build/stm32h7xx_ll_tim.o
LOAD ./build/stm32h7xx_hal_fmac.o
LOAD ./build/stm32h7xx_hal_i2c_ex.o
LOAD ./build/stm32h7xx_ll_bdma.o
LOAD ./build/stm32h7xx_hal_sram.o
LOAD ./build/stm32h7xx_hal_dma_ex.o
LOAD ./build/stm32h7xx_ll_rng.o
LOAD ./build/stm32h7xx_hal_ltdc_ex.o
LOAD ./build/stm32h7xx_hal_swpmi.o
LOAD ./build/stm32h7xx_hal_hash_ex.o
LOAD ./build/stm32h7xx_hal_qspi.o
LOAD ./build/stm32h7xx_hal_nand.o
LOAD ./build/stm32h7xx_hal_i2s.o
LOAD ./build/stm32h7xx_hal_sai_ex.o
LOAD ./build/stm32h7xx_ll_sdmmc.o
LOAD ./build/stm32h7xx_hal_ltdc.o
LOAD ./build/stm32h7xx_hal_dma.o
LOAD ./build/stm32h7xx_hal_mdma.o
LOAD ./build/stm32h7xx_hal_mmc_ex.o
LOAD ./build/stm32h7xx_hal_adc_ex.o
LOAD ./build/stm32h7xx_hal_tim_ex.o
LOAD ./build/stm32h7xx_hal_eth_ex.o
LOAD ./build/stm32h7xx_ll_fmac.o
LOAD ./build/stm32h7xx_ll_delayblock.o
LOAD ./build/stm32h7xx_ll_dma2d.o
LOAD ./build/stm32h7xx_hal_hash.o
LOAD ./build/stm32h7xx_ll_mdma.o
LOAD ./build/stm32h7xx_hal_cryp_ex.o
LOAD ./build/stm32h7xx_hal_sai.o
LOAD ./build/stm32h7xx_hal_gfxmmu.o
LOAD ./build/stm32h7xx_ll_utils.o
LOAD ./build/stm32h7xx_hal_gpio.o
LOAD ./build/stm32h7xx_hal_jpeg.o
LOAD ./build/stm32h7xx_hal_ospi.o
LOAD ./build/stm32h7xx_ll_opamp.o
LOAD ./build/stm32h7xx_hal_adc.o
LOAD ./build/stm32h7xx_hal_pcd_ex.o
LOAD ./build/stm32h7xx_ll_dac.o
LOAD ./build/stm32h7xx_hal_usart_ex.o
LOAD ./build/stm32h7xx_hal_crc_ex.o
LOAD ./build/stm32h7xx_hal_rtc_ex.o
LOAD ./build/stm32h7xx_hal_otfdec.o
LOAD ./build/main.o
LOAD ./build/stm32h7xx_it.o
LOAD ./build/stm32h7xx_hal_msp.o
LOAD ./build/bmi088_sample.o
LOAD ./build/sensor_intf_bmi088.o
LOAD ./build/bmi088.o
LOAD ./build/board.o
LOAD ./build/sensor_intf_hmc5883l.o
LOAD ./build/hmc5883l.o
LOAD ./build/sensor_intf_mmc5983ma.o
LOAD ./build/mmc5983ma.o
LOAD ./build/fport.o
LOAD ./build/spl06_001.o
LOAD ./build/dfs.o
LOAD ./build/select.o
LOAD ./build/dfs_file.o
LOAD ./build/poll.o
LOAD ./build/dfs_posix.o
LOAD ./build/dfs_fs.o
LOAD ./build/audio_pipe.o
LOAD ./build/audio.o
LOAD ./build/can.o
LOAD ./build/i2c_dev.o
LOAD ./build/i2c-bit-ops.o
LOAD ./build/i2c_core.o
LOAD ./build/completion.o
LOAD ./build/waitqueue.o
LOAD ./build/pipe.o
LOAD ./build/ringbuffer.o
LOAD ./build/dataqueue.o
LOAD ./build/workqueue.o
LOAD ./build/ringblk_buf.o
LOAD ./build/adc.o
LOAD ./build/pin.o
LOAD ./build/sd.o
LOAD ./build/sdio.o
LOAD ./build/mmc.o
LOAD ./build/mmcsd_core.o
LOAD ./build/block_dev.o
LOAD ./build/sensor_cmd.o
LOAD ./build/sensor.o
LOAD ./build/serial_v2.o
LOAD ./build/spi_core.o
LOAD ./build/spi_msd.o
LOAD ./build/spi_dev.o
LOAD ./build/winusb.o
LOAD ./build/audio_mic.o
LOAD ./build/cdc_vcom.o
LOAD ./build/hid.o
LOAD ./build/mstorage.o
LOAD ./build/audio_speaker.o
LOAD ./build/ecm.o
LOAD ./build/rndis.o
LOAD ./build/usbdevice_core.o
LOAD ./build/usbdevice.o
LOAD ./build/cmd.o
LOAD ./build/msh.o
LOAD ./build/shell.o
LOAD ./build/msh_file.o
LOAD ./build/cpuport.o
LOAD ./build/components.o
LOAD ./build/timer.o
LOAD ./build/thread.o
LOAD ./build/slab.o
LOAD ./build/memheap.o
LOAD ./build/object.o
LOAD ./build/signal.o
LOAD ./build/cpu.o
LOAD ./build/device.o
LOAD ./build/ipc.o
LOAD ./build/kservice.o
LOAD ./build/clock.o
LOAD ./build/scheduler.o
LOAD ./build/irq.o
LOAD ./build/mempool.o
LOAD ./build/idle.o
LOAD ./build/mem.o
LOAD ./build/startup_stm32h750xx.o
LOAD ./build/context_gcc.o
START GROUP
LOAD d:/software/work/gcc-arm-none-eabi-10.3-2021.07/bin/../lib/gcc/arm-none-eabi/10.3.1/thumb/v7e-m+dp/hard\libgcc.a
LOAD d:/software/work/gcc-arm-none-eabi-10.3-2021.07/bin/../lib/gcc/arm-none-eabi/10.3.1/../../../../arm-none-eabi/lib/thumb/v7e-m+dp/hard\libc.a
END GROUP
LOAD d:/software/work/gcc-arm-none-eabi-10.3-2021.07/bin/../lib/gcc/arm-none-eabi/10.3.1/thumb/v7e-m+dp/hard/crtend.o
LOAD d:/software/work/gcc-arm-none-eabi-10.3-2021.07/bin/../lib/gcc/arm-none-eabi/10.3.1/thumb/v7e-m+dp/hard/crtn.o
                0x20020000                _estack = 0x20020000
                0x00000200                _Min_Heap_Size = 0x200
                0x00000400                _Min_Stack_Size = 0x400

.isr_vector     0x08000000      0x298
                0x08000000                . = ALIGN (0x4)
 *(.isr_vector)
 .isr_vector    0x08000000      0x298 ./build/startup_stm32h750xx.o
                0x08000000                g_pfnVectors
                0x08000298                . = ALIGN (0x4)

.text           0x080002c0    0x63620
                0x080002c0                . = ALIGN (0x4)
 *(.text)
 .text          0x080002c0        0x0 d:/software/work/gcc-arm-none-eabi-10.3-2021.07/bin/../lib/gcc/arm-none-eabi/10.3.1/thumb/v7e-m+dp/hard/crti.o
 .text          0x080002c0       0x40 d:/software/work/gcc-arm-none-eabi-10.3-2021.07/bin/../lib/gcc/arm-none-eabi/10.3.1/thumb/v7e-m+dp/hard/crtbegin.o
 .text          0x08000300       0x7c d:/software/work/gcc-arm-none-eabi-10.3-2021.07/bin/../lib/gcc/arm-none-eabi/10.3.1/../../../../arm-none-eabi/lib/thumb/v7e-m+dp/hard/crt0.o
                0x08000300                _stack_init
                0x08000308                _mainCRTStartup
                0x08000308                _start
 .text          0x0800037c      0x564 ./build/drv_sdio.o
                0x08000748                rthw_sdio_irq_process
                0x0800075c                sdio_host_create
                0x08000854                rt_hw_sdio_init
                0x080008a4                SDMMC1_IRQHandler
                0x080008bc                SDMMC2_IRQHandler
                0x080008ce                sdcard_change
 .text          0x080008e0      0xc14 ./build/drv_usart_v2.o
                0x08001058                stm32_uart_get_mask
                0x080012c4                USART1_IRQHandler
                0x080012dc                USART2_IRQHandler
                0x080012f4                USART3_IRQHandler
                0x0800130c                UART4_IRQHandler
                0x08001324                USART6_IRQHandler
                0x0800133c                UART8_IRQHandler
                0x08001354                HAL_UART_ErrorCallback
                0x08001370                HAL_UART_RxCpltCallback
                0x08001398                HAL_UART_RxHalfCpltCallback
                0x080013c0                HAL_UART_TxCpltCallback
                0x08001480                rt_hw_usart_init
 .text          0x080014f4      0x170 ./build/drv_soft_i2c.o
                0x080015e8                rt_hw_i2c_init
 .text          0x08001664      0x64c ./build/drv_gpio.o
                0x08001a80                HAL_GPIO_EXTI_Callback
                0x08001ac0                EXTI0_IRQHandler
                0x08001ad2                EXTI1_IRQHandler
                0x08001ae4                EXTI2_IRQHandler
                0x08001af6                EXTI3_IRQHandler
                0x08001b08                EXTI4_IRQHandler
                0x08001b1a                EXTI9_5_IRQHandler
                0x08001b48                EXTI15_10_IRQHandler
                0x08001b84                rt_hw_pin_init
 .text          0x08001cb0      0x758 ./build/drv_spi.o
                0x08001e28                rt_hw_spi_init
                0x08002320                rt_hw_spi_device_attach
 .text          0x08002408        0x0 ./build/drv_adc.o
 .text          0x08002408      0x16c ./build/drv_common.o
                0x08002410                rt_hw_systick_init
                0x08002440                HAL_IncTick
                0x08002458                SysTick_Handler
                0x0800247a                HAL_GetTick
                0x08002498                HAL_SuspendTick
                0x0800249a                HAL_ResumeTick
                0x0800249c                HAL_InitTick
                0x080024a6                _Error_Handler
                0x080024d0                rt_hw_us_delay
                0x08002514                HAL_Delay
                0x08002540                rt_hw_board_init
 .text          0x08002574      0x7d8 ./build/drv_fdcan.o
                0x08002c70                HAL_FDCAN_RxFifo0Callback
                0x08002c98                HAL_FDCAN_TxBufferCompleteCallback
                0x08002cbc                HAL_FDCAN_TxFifoEmptyCallback
                0x08002cbe                HAL_FDCAN_TxBufferAbortCallback
                0x08002cc0                HAL_FDCAN_ErrorCallback
                0x08002d1c                FDCAN1_IT0_IRQHandler
                0x08002d34                FDCAN1_IT1_IRQHandler
 .text          0x08002d4c        0x0 ./build/drv_flash_h7.o
 .text          0x08002d4c      0x2dc ./build/system_stm32h7xx.o
                0x08002d4c                SystemInit
                0x08002e18                SystemCoreClockUpdate
 .text          0x08003028      0x310 ./build/stm32h7xx_ll_dma.o
                0x08003028                LL_DMA_DeInit
                0x08003254                LL_DMA_Init
                0x08003314                LL_DMA_StructInit
 .text          0x08003338     0x3174 ./build/stm32h7xx_hal_cryp.o
                0x08003e20                HAL_CRYP_SetConfig
                0x08003eb0                HAL_CRYP_GetConfig
                0x08003f24                HAL_CRYP_MspInit
                0x08003f26                HAL_CRYP_Init
                0x08003f70                HAL_CRYP_MspDeInit
                0x08003f72                HAL_CRYP_DeInit
                0x08003fa2                HAL_CRYP_Encrypt_IT
                0x08004134                HAL_CRYP_Decrypt_IT
                0x080042c4                HAL_CRYP_GetError
                0x080042c8                HAL_CRYP_GetState
                0x080042ce                HAL_CRYP_InCpltCallback
                0x080042e4                HAL_CRYP_OutCpltCallback
                0x080045c4                HAL_CRYP_ErrorCallback
                0x08005460                HAL_CRYP_Encrypt
                0x080055c0                HAL_CRYP_Decrypt
                0x08005ef2                HAL_CRYP_Encrypt_DMA
                0x08006090                HAL_CRYP_Decrypt_DMA
                0x08006458                HAL_CRYP_IRQHandler
 .text          0x080064ac     0x4240 ./build/stm32h7xx_hal_hrtim.o
                0x08006dca                HAL_HRTIM_MspInit
                0x08006dcc                HAL_HRTIM_Init
                0x08006ea8                HAL_HRTIM_MspDeInit
                0x08006eaa                HAL_HRTIM_DeInit
                0x08006ec8                HAL_HRTIM_TimeBaseConfig
                0x08006efa                HAL_HRTIM_SimpleBaseStart
                0x08006f38                HAL_HRTIM_SimpleBaseStop
                0x0800701c                HAL_HRTIM_SimpleBaseStart_IT
                0x08007080                HAL_HRTIM_SimpleBaseStop_IT
                0x08007184                HAL_HRTIM_SimpleBaseStart_DMA
                0x08007268                HAL_HRTIM_SimpleBaseStop_DMA
                0x080073b0                HAL_HRTIM_SimpleOCChannelConfig
                0x08007500                HAL_HRTIM_SimpleOCStart
                0x0800754c                HAL_HRTIM_SimpleOCStop
                0x08007640                HAL_HRTIM_SimpleOCStart_IT
                0x080076a0                HAL_HRTIM_SimpleOCStop_IT
                0x080077ac                HAL_HRTIM_SimpleOCStart_DMA
                0x08007880                HAL_HRTIM_SimpleOCStop_DMA
                0x080079b0                HAL_HRTIM_SimplePWMChannelConfig
                0x08007aa8                HAL_HRTIM_SimplePWMStart
                0x08007af4                HAL_HRTIM_SimplePWMStop
                0x08007be8                HAL_HRTIM_SimplePWMStart_IT
                0x08007cbc                HAL_HRTIM_SimplePWMStop_IT
                0x08007e3c                HAL_HRTIM_SimplePWMStart_DMA
                0x08007f84                HAL_HRTIM_SimplePWMStop_DMA
                0x0800811c                HAL_HRTIM_SimpleCaptureChannelConfig
                0x08008192                HAL_HRTIM_SimpleCaptureStart
                0x08008220                HAL_HRTIM_SimpleCaptureStop
                0x08008358                HAL_HRTIM_SimpleCaptureStart_IT
                0x0800840c                HAL_HRTIM_SimpleCaptureStop_IT
                0x0800856c                HAL_HRTIM_SimpleCaptureStart_DMA
                0x08008664                HAL_HRTIM_SimpleCaptureStop_DMA
                0x080087dc                HAL_HRTIM_SimpleOnePulseChannelConfig
                0x080088f8                HAL_HRTIM_SimpleOnePulseStart
                0x08008944                HAL_HRTIM_SimpleOnePulseStop
                0x08008a38                HAL_HRTIM_SimpleOnePulseStart_IT
                0x08008b0c                HAL_HRTIM_SimpleOnePulseStop_IT
                0x08008c8c                HAL_HRTIM_BurstModeConfig
                0x08008d14                HAL_HRTIM_EventConfig
                0x08008d4c                HAL_HRTIM_EventPrescalerConfig
                0x08008d98                HAL_HRTIM_FaultConfig
                0x08008f28                HAL_HRTIM_FaultPrescalerConfig
                0x08008f74                HAL_HRTIM_FaultModeCtl
                0x08009012                HAL_HRTIM_ADCTriggerConfig
                0x080090da                HAL_HRTIM_WaveformTimerConfig
                0x0800914a                HAL_HRTIM_TimerEventFilteringConfig
                0x0800930a                HAL_HRTIM_DeadTimeConfig
                0x080093b0                HAL_HRTIM_ChopperModeConfig
                0x08009418                HAL_HRTIM_BurstDMAConfig
                0x080094a2                HAL_HRTIM_WaveformCompareConfig
                0x08009664                HAL_HRTIM_WaveformCaptureConfig
                0x080096d8                HAL_HRTIM_WaveformOutputConfig
                0x08009710                HAL_HRTIM_WaveformSetOutputLevel
                0x08009802                HAL_HRTIM_WaveformOutputStart
                0x0800983a                HAL_HRTIM_WaveformOutputStop
                0x08009872                HAL_HRTIM_WaveformCountStart
                0x080098a6                HAL_HRTIM_WaveformCountStop
                0x080098dc                HAL_HRTIM_WaveformCountStart_IT
                0x08009968                HAL_HRTIM_WaveformCountStop_IT
                0x08009a14                HAL_HRTIM_WaveformCountStart_DMA
                0x08009b40                HAL_HRTIM_WaveformCountStop_DMA
                0x08009c88                HAL_HRTIM_BurstModeCtl
                0x08009cd0                HAL_HRTIM_BurstModeSoftwareTrigger
                0x08009d0c                HAL_HRTIM_SoftwareCapture
                0x08009d88                HAL_HRTIM_SoftwareUpdate
                0x08009dcc                HAL_HRTIM_SoftwareReset
                0x08009e02                HAL_HRTIM_BurstDMATransfer
                0x08009e9c                HAL_HRTIM_UpdateEnable
                0x08009ed6                HAL_HRTIM_UpdateDisable
                0x08009f0e                HAL_HRTIM_GetState
                0x08009f14                HAL_HRTIM_GetCapturedValue
                0x08009f46                HAL_HRTIM_WaveformGetOutputLevel
                0x08009fda                HAL_HRTIM_WaveformGetOutputState
                0x0800a05a                HAL_HRTIM_GetDelayedProtectionStatus
                0x0800a0ee                HAL_HRTIM_GetBurstStatus
                0x0800a0fa                HAL_HRTIM_GetCurrentPushPullStatus
                0x0800a10a                HAL_HRTIM_GetIdlePushPullStatus
                0x0800a11a                HAL_HRTIM_Fault1Callback
                0x0800a11c                HAL_HRTIM_Fault2Callback
                0x0800a11e                HAL_HRTIM_Fault3Callback
                0x0800a120                HAL_HRTIM_Fault4Callback
                0x0800a122                HAL_HRTIM_Fault5Callback
                0x0800a124                HAL_HRTIM_SystemFaultCallback
                0x0800a1da                HAL_HRTIM_BurstModePeriodCallback
                0x0800a1dc                HAL_HRTIM_SynchronizationEventCallback
                0x0800a1de                HAL_HRTIM_RegistersUpdateCallback
                0x0800a1e0                HAL_HRTIM_RepetitionEventCallback
                0x0800a1e2                HAL_HRTIM_Compare1EventCallback
                0x0800a1e4                HAL_HRTIM_Compare2EventCallback
                0x0800a1e6                HAL_HRTIM_Compare3EventCallback
                0x0800a1e8                HAL_HRTIM_Compare4EventCallback
                0x0800a34e                HAL_HRTIM_Capture1EventCallback
                0x0800a350                HAL_HRTIM_Capture2EventCallback
                0x0800a352                HAL_HRTIM_DelayedProtectionCallback
                0x0800a354                HAL_HRTIM_CounterResetCallback
                0x0800a356                HAL_HRTIM_Output1SetCallback
                0x0800a358                HAL_HRTIM_Output1ResetCallback
                0x0800a35a                HAL_HRTIM_Output2SetCallback
                0x0800a35c                HAL_HRTIM_Output2ResetCallback
                0x0800a6ac                HAL_HRTIM_IRQHandler
                0x0800a6c8                HAL_HRTIM_BurstDMATransferCallback
                0x0800a6e0                HAL_HRTIM_ErrorCallback
 .text          0x0800a6ec      0x594 ./build/stm32h7xx_hal.o
                0x0800a6f0                HAL_DeInit
                0x0800a7c0                HAL_Init
                0x0800a840                HAL_GetTickPrio
                0x0800a84c                HAL_SetTickFreq
                0x0800a870                HAL_GetTickFreq
                0x0800a8c0                HAL_GetHalVersion
                0x0800a8c8                HAL_GetREVID
                0x0800a8d4                HAL_GetDEVID
                0x0800a8e4                HAL_GetUIDw0
                0x0800a8f0                HAL_GetUIDw1
                0x0800a8fc                HAL_GetUIDw2
                0x0800a908                HAL_SYSCFG_VREFBUF_VoltageScalingConfig
                0x0800a91c                HAL_SYSCFG_VREFBUF_HighImpedanceConfig
                0x0800a930                HAL_SYSCFG_VREFBUF_TrimmingConfig
                0x0800a944                HAL_SYSCFG_EnableVREFBUF
                0x0800a978                HAL_SYSCFG_DisableVREFBUF
                0x0800a988                HAL_SYSCFG_ETHInterfaceSelect
                0x0800a99c                HAL_SYSCFG_AnalogSwitchConfig
                0x0800a9b0                HAL_SYSCFG_EnableBOOST
                0x0800a9c0                HAL_SYSCFG_DisableBOOST
                0x0800a9d0                HAL_SYSCFG_CM7BootAddConfig
                0x0800aa04                HAL_EnableCompensationCell
                0x0800aa14                HAL_DisableCompensationCell
                0x0800aa24                HAL_SYSCFG_EnableIOSpeedOptimize
                0x0800aa34                HAL_SYSCFG_DisableIOSpeedOptimize
                0x0800aa44                HAL_SYSCFG_CompensationCodeSelect
                0x0800aa58                HAL_SYSCFG_CompensationCodeConfig
                0x0800aa70                HAL_DBGMCU_EnableDBGSleepMode
                0x0800aa80                HAL_DBGMCU_DisableDBGSleepMode
                0x0800aa90                HAL_DBGMCU_EnableDBGStopMode
                0x0800aaa0                HAL_DBGMCU_DisableDBGStopMode
                0x0800aab0                HAL_DBGMCU_EnableDBGStandbyMode
                0x0800aac0                HAL_DBGMCU_DisableDBGStandbyMode
                0x0800aad0                HAL_SetFMCMemorySwappingConfig
                0x0800aae4                HAL_GetFMCMemorySwappingConfig
                0x0800aaf4                HAL_EXTI_EdgeConfig
                0x0800ab48                HAL_EXTI_GenerateSWInterrupt
                0x0800ab68                HAL_EXTI_D1_ClearFlag
                0x0800ab80                HAL_EXTI_D1_EventInputConfig
                0x0800ac04                HAL_EXTI_D3_EventInputConfig
 .text          0x0800ac80     0x1ccc ./build/stm32h7xx_hal_rcc_ex.o
                0x0800ae98                HAL_RCCEx_PeriphCLKConfig
                0x0800b85c                HAL_RCCEx_GetPeriphCLKConfig
                0x0800ba28                HAL_RCCEx_GetD1PCLK1Freq
                0x0800ba4c                HAL_RCCEx_GetD3PCLK1Freq
                0x0800ba70                HAL_RCCEx_GetPLL2ClockFreq
                0x0800bc68                HAL_RCCEx_GetPLL3ClockFreq
                0x0800be60                HAL_RCCEx_GetPLL1ClockFreq
                0x0800c058                HAL_RCCEx_GetPeriphCLKFreq
                0x0800c66c                HAL_RCCEx_GetD1SysClockFreq
                0x0800c6b0                HAL_RCCEx_EnableLSECSS
                0x0800c6c0                HAL_RCCEx_DisableLSECSS
                0x0800c6d8                HAL_RCCEx_EnableLSECSS_IT
                0x0800c708                HAL_RCCEx_WakeUpStopCLKConfig
                0x0800c71c                HAL_RCCEx_KerWakeUpStopCLKConfig
                0x0800c730                HAL_RCCEx_WWDGxSysResetConfig
                0x0800c744                HAL_RCCEx_CRSConfig
                0x0800c7b8                HAL_RCCEx_CRSSoftwareSynchronizationGenerate
                0x0800c7c8                HAL_RCCEx_CRSGetSynchronizationInfo
                0x0800c7ec                HAL_RCCEx_CRSWaitSynchronization
                0x0800c898                HAL_RCCEx_CRS_SyncOkCallback
                0x0800c89a                HAL_RCCEx_CRS_SyncWarnCallback
                0x0800c89c                HAL_RCCEx_CRS_ExpectedSyncCallback
                0x0800c89e                HAL_RCCEx_CRS_ErrorCallback
                0x0800c8a0                HAL_RCCEx_CRS_IRQHandler
                0x0800c928                HAL_RCCEx_LSECSS_Callback
                0x0800c92a                HAL_RCCEx_LSECSS_IRQHandler
 .text          0x0800c94c     0x208c ./build/stm32h7xx_hal_fdcan.o
                0x0800cbaa                HAL_FDCAN_Init
                0x0800ce3c                HAL_FDCAN_MspDeInit
                0x0800ce3e                HAL_FDCAN_EnterPowerDownMode
                0x0800ce80                HAL_FDCAN_ExitPowerDownMode
                0x0800ceca                HAL_FDCAN_ConfigClockCalibration
                0x0800cf60                HAL_FDCAN_GetClockCalibrationState
                0x0800cf70                HAL_FDCAN_ResetClockCalibrationState
                0x0800cfb8                HAL_FDCAN_GetClockCalibrationCounter
                0x0800cfe0                HAL_FDCAN_ConfigFilter
                0x0800d068                HAL_FDCAN_ConfigGlobalFilter
                0x0800d09e                HAL_FDCAN_ConfigExtendedIdMask
                0x0800d0c2                HAL_FDCAN_ConfigRxFifoOverwrite
                0x0800d106                HAL_FDCAN_ConfigFifoWatermark
                0x0800d164                HAL_FDCAN_ConfigRamWatchdog
                0x0800d18e                HAL_FDCAN_ConfigTimestampCounter
                0x0800d1b8                HAL_FDCAN_EnableTimestampCounter
                0x0800d1e2                HAL_FDCAN_DisableTimestampCounter
                0x0800d20a                HAL_FDCAN_GetTimestampCounter
                0x0800d212                HAL_FDCAN_ResetTimestampCounter
                0x0800d234                HAL_FDCAN_ConfigTimeoutCounter
                0x0800d266                HAL_FDCAN_EnableTimeoutCounter
                0x0800d28e                HAL_FDCAN_DisableTimeoutCounter
                0x0800d2b6                HAL_FDCAN_GetTimeoutCounter
                0x0800d2be                HAL_FDCAN_ResetTimeoutCounter
                0x0800d2de                HAL_FDCAN_ConfigTxDelayCompensation
                0x0800d304                HAL_FDCAN_EnableTxDelayCompensation
                0x0800d32c                HAL_FDCAN_DisableTxDelayCompensation
                0x0800d354                HAL_FDCAN_EnableISOMode
                0x0800d37c                HAL_FDCAN_DisableISOMode
                0x0800d3a4                HAL_FDCAN_EnableEdgeFiltering
                0x0800d3cc                HAL_FDCAN_DisableEdgeFiltering
                0x0800d3f4                HAL_FDCAN_Start
                0x0800d428                HAL_FDCAN_Stop
                0x0800d4c0                HAL_FDCAN_DeInit
                0x0800d4ea                HAL_FDCAN_AddMessageToTxFifoQ
                0x0800d560                HAL_FDCAN_AddMessageToTxBuffer
                0x0800d5de                HAL_FDCAN_EnableTxBufferRequest
                0x0800d602                HAL_FDCAN_GetLatestTxFifoQRequestBuffer
                0x0800d608                HAL_FDCAN_AbortTxRequest
                0x0800d62c                HAL_FDCAN_GetRxMessage
                0x0800d80c                HAL_FDCAN_GetTxEvent
                0x0800d8d8                HAL_FDCAN_GetHighPriorityMessageStatus
                0x0800d90c                HAL_FDCAN_GetProtocolStatus
                0x0800d956                HAL_FDCAN_GetErrorCounters
                0x0800d974                HAL_FDCAN_IsRxBufferMessageAvailable
                0x0800d9bc                HAL_FDCAN_IsTxBufferMessagePending
                0x0800d9ca                HAL_FDCAN_GetRxFifoFillLevel
                0x0800d9e6                HAL_FDCAN_GetTxFifoFreeLevel
                0x0800d9f2                HAL_FDCAN_IsRestrictedOperationMode
                0x0800d9fc                HAL_FDCAN_ExitRestrictedOperationMode
                0x0800da26                HAL_FDCAN_TT_ConfigOperation
                0x0800dbcc                HAL_FDCAN_TT_ConfigReferenceMessage
                0x0800dc1e                HAL_FDCAN_TT_ConfigTrigger
                0x0800dc9c                HAL_FDCAN_TT_SetGlobalTime
                0x0800dd30                HAL_FDCAN_TT_SetClockSynchronization
                0x0800ddc8                HAL_FDCAN_TT_ConfigStopWatch
                0x0800de22                HAL_FDCAN_TT_ConfigRegisterTimeMark
                0x0800dee6                HAL_FDCAN_TT_EnableRegisterTimeMarkPulse
                0x0800df38                HAL_FDCAN_TT_DisableRegisterTimeMarkPulse
                0x0800df8a                HAL_FDCAN_TT_EnableTriggerTimeMarkPulse
                0x0800dff6                HAL_FDCAN_TT_DisableTriggerTimeMarkPulse
                0x0800e062                HAL_FDCAN_TT_EnableHardwareGapControl
                0x0800e0ce                HAL_FDCAN_TT_DisableHardwareGapControl
                0x0800e13a                HAL_FDCAN_TT_EnableTimeMarkGapControl
                0x0800e1a6                HAL_FDCAN_TT_DisableTimeMarkGapControl
                0x0800e212                HAL_FDCAN_TT_SetNextIsGap
                0x0800e296                HAL_FDCAN_TT_SetEndOfGap
                0x0800e31a                HAL_FDCAN_TT_ConfigExternalSyncPhase
                0x0800e35e                HAL_FDCAN_TT_EnableExternalSynchronization
                0x0800e3b0                HAL_FDCAN_TT_DisableExternalSynchronization
                0x0800e402                HAL_FDCAN_TT_GetOperationStatus
                0x0800e45c                HAL_FDCAN_ConfigInterruptLines
                0x0800e494                HAL_FDCAN_TT_ConfigInterruptLines
                0x0800e4cc                HAL_FDCAN_ActivateNotification
                0x0800e55c                HAL_FDCAN_DeactivateNotification
                0x0800e5e4                HAL_FDCAN_TT_ActivateNotification
                0x0800e63a                HAL_FDCAN_TT_DeactivateNotification
                0x0800e68c                HAL_FDCAN_ClockCalibrationCallback
                0x0800e68e                HAL_FDCAN_TxEventFifoCallback
                0x0800e692                HAL_FDCAN_RxFifo1Callback
                0x0800e69a                HAL_FDCAN_RxBufferNewMessageCallback
                0x0800e69c                HAL_FDCAN_TimestampWraparoundCallback
                0x0800e69e                HAL_FDCAN_TimeoutOccurredCallback
                0x0800e6a0                HAL_FDCAN_HighPriorityMessageCallback
                0x0800e6a4                HAL_FDCAN_ErrorStatusCallback
                0x0800e6a6                HAL_FDCAN_TT_ScheduleSyncCallback
                0x0800e6a8                HAL_FDCAN_TT_TimeMarkCallback
                0x0800e6aa                HAL_FDCAN_TT_StopWatchCallback
                0x0800e6ac                HAL_FDCAN_TT_GlobalTimeCallback
                0x0800e6ae                HAL_FDCAN_IRQHandler
                0x0800e9cc                HAL_FDCAN_GetState
                0x0800e9d2                HAL_FDCAN_GetError
 .text          0x0800e9d8      0x1d0 ./build/stm32h7xx_hal_sd_ex.o
                0x0800e9d8                HAL_SDEx_ConfigDMAMultiBuffer
                0x0800ea02                HAL_SDEx_ReadBlocksDMAMultiBuffer
                0x0800ead8                HAL_SDEx_WriteBlocksDMAMultiBuffer
                0x0800eb98                HAL_SDEx_ChangeDMABuffer
 .text          0x0800eba8      0xb9e ./build/stm32h7xx_hal_hcd.o
                0x0800ec46                HAL_HCD_HC_Init
                0x0800ecd4                HAL_HCD_HC_Halt
                0x0800ecf8                HAL_HCD_MspInit
                0x0800ecfa                HAL_HCD_Init
                0x0800ed9e                HAL_HCD_MspDeInit
                0x0800eda0                HAL_HCD_DeInit
                0x0800edc2                HAL_HCD_HC_SubmitRequest
                0x0800ef26                HAL_HCD_SOF_Callback
                0x0800ef28                HAL_HCD_Connect_Callback
                0x0800ef2a                HAL_HCD_Disconnect_Callback
                0x0800ef2c                HAL_HCD_PortEnabled_Callback
                0x0800ef2e                HAL_HCD_PortDisabled_Callback
                0x0800efe0                HAL_HCD_HC_NotifyURBChange_Callback
                0x0800f55e                HAL_HCD_IRQHandler
                0x0800f6b2                HAL_HCD_Start
                0x0800f6dc                HAL_HCD_Stop
                0x0800f700                HAL_HCD_ResetPort
                0x0800f70a                HAL_HCD_GetState
                0x0800f710                HAL_HCD_HC_GetURBState
                0x0800f71c                HAL_HCD_HC_GetXferCount
                0x0800f726                HAL_HCD_HC_GetState
                0x0800f732                HAL_HCD_GetCurrentFrame
                0x0800f73c                HAL_HCD_GetCurrentSpeed
 *fill*         0x0800f746        0x2 
 .text          0x0800f748     0x4268 ./build/stm32h7xx_hal_tim.o
                0x0800fae4                HAL_TIM_Base_MspInit
                0x0800fae6                HAL_TIM_Base_MspDeInit
                0x0800fae8                HAL_TIM_Base_DeInit
                0x0800fb4e                HAL_TIM_Base_Start
                0x0800fbd4                HAL_TIM_Base_Stop
                0x0800fbfc                HAL_TIM_Base_Start_IT
                0x0800fc8c                HAL_TIM_Base_Stop_IT
                0x0800fcbe                HAL_TIM_Base_Start_DMA
                0x0800fda0                HAL_TIM_Base_Stop_DMA
                0x0800fddc                HAL_TIM_OC_MspInit
                0x0800fdde                HAL_TIM_OC_MspDeInit
                0x0800fde0                HAL_TIM_OC_DeInit
                0x0800fe46                HAL_TIM_PWM_MspInit
                0x0800fe48                HAL_TIM_PWM_MspDeInit
                0x0800fe4a                HAL_TIM_PWM_DeInit
                0x0800feb0                HAL_TIM_IC_MspInit
                0x0800feb2                HAL_TIM_IC_MspDeInit
                0x0800feb4                HAL_TIM_IC_DeInit
                0x0800ff1a                HAL_TIM_OnePulse_MspInit
                0x0800ff1c                HAL_TIM_OnePulse_MspDeInit
                0x0800ff1e                HAL_TIM_OnePulse_DeInit
                0x0800ff6c                HAL_TIM_Encoder_MspInit
                0x0800ff6e                HAL_TIM_Encoder_MspDeInit
                0x0800ff70                HAL_TIM_Encoder_DeInit
                0x0800ffbe                HAL_TIM_DMABurst_MultiWriteStart
                0x0801016c                HAL_TIM_DMABurst_WriteStart
                0x08010182                HAL_TIM_DMABurst_WriteStop
                0x08010206                HAL_TIM_DMABurst_MultiReadStart
                0x080103b8                HAL_TIM_DMABurst_ReadStart
                0x080103ce                HAL_TIM_DMABurst_ReadStop
                0x08010452                HAL_TIM_GenerateEvent
                0x0801047c                HAL_TIM_ConfigTI1Input
                0x0801048c                HAL_TIM_ReadCapturedValue
                0x080104be                HAL_TIM_PeriodElapsedCallback
                0x080104d6                HAL_TIM_PeriodElapsedHalfCpltCallback
                0x080104e2                HAL_TIM_OC_DelayElapsedCallback
                0x080104e4                HAL_TIM_IC_CaptureCallback
                0x080104e6                TIM_DMACaptureCplt
                0x08010566                HAL_TIM_IC_CaptureHalfCpltCallback
                0x08010568                TIM_DMACaptureHalfCplt
                0x080105a6                HAL_TIM_PWM_PulseFinishedCallback
                0x08010618                HAL_TIM_PWM_PulseFinishedHalfCpltCallback
                0x0801061a                TIM_DMADelayPulseHalfCplt
                0x08010658                HAL_TIM_TriggerCallback
                0x0801065a                HAL_TIM_IRQHandler
                0x0801080a                HAL_TIM_TriggerHalfCpltCallback
                0x08010816                HAL_TIM_ErrorCallback
                0x08010818                TIM_DMAError
                0x08010874                HAL_TIM_Base_GetState
                0x0801087a                HAL_TIM_OC_GetState
                0x08010880                HAL_TIM_PWM_GetState
                0x08010886                HAL_TIM_IC_GetState
                0x0801088c                HAL_TIM_OnePulse_GetState
                0x08010892                HAL_TIM_Encoder_GetState
                0x08010898                HAL_TIM_GetActiveChannel
                0x0801089c                HAL_TIM_GetChannelState
                0x080108de                HAL_TIM_DMABurstState
                0x080108e4                TIM_Base_SetConfig
                0x080109e8                HAL_TIM_Base_Init
                0x08010a48                HAL_TIM_OC_Init
                0x08010aa8                HAL_TIM_PWM_Init
                0x08010b08                HAL_TIM_IC_Init
                0x08010b68                HAL_TIM_OnePulse_Init
                0x08010bc4                HAL_TIM_Encoder_Init
                0x08010c78                TIM_OC2_SetConfig
                0x08010d0c                HAL_TIM_OC_ConfigChannel
                0x08010d86                HAL_TIM_PWM_ConfigChannel
                0x08010ec0                TIM_TI1_SetConfig
                0x08010f54                HAL_TIM_IC_ConfigChannel
                0x08011018                HAL_TIM_OnePulse_ConfigChannel
                0x0801111c                TIM_ETR_SetConfig
                0x08011136                HAL_TIM_ConfigOCrefClear
                0x0801127a                HAL_TIM_ConfigClockSource
                0x08011504                HAL_TIM_SlaveConfigSynchro
                0x08011556                HAL_TIM_SlaveConfigSynchro_IT
                0x080115a8                TIM_CCxChannelCmd
                0x080115c6                HAL_TIM_OC_Start
                0x0801172c                HAL_TIM_OC_Stop
                0x080117e8                HAL_TIM_OC_Start_IT
                0x08011998                HAL_TIM_OC_Stop_IT
                0x08011aa8                HAL_TIM_OC_Start_DMA
                0x08011da8                HAL_TIM_OC_Stop_DMA
                0x08011ed0                HAL_TIM_PWM_Start
                0x08012038                HAL_TIM_PWM_Stop
                0x080120f4                HAL_TIM_PWM_Start_IT
                0x080122a4                HAL_TIM_PWM_Stop_IT
                0x080123b4                HAL_TIM_PWM_Start_DMA
                0x080126b4                HAL_TIM_PWM_Stop_DMA
                0x080127dc                HAL_TIM_IC_Start
                0x08012944                HAL_TIM_IC_Stop
                0x080129dc                HAL_TIM_IC_Start_IT
                0x08012b8c                HAL_TIM_IC_Stop_IT
                0x08012c74                HAL_TIM_IC_Start_DMA
                0x08012f00                HAL_TIM_IC_Stop_DMA
                0x08013000                HAL_TIM_OnePulse_Start
                0x0801309c                HAL_TIM_OnePulse_Stop
                0x08013134                HAL_TIM_OnePulse_Start_IT
                0x080131e8                HAL_TIM_OnePulse_Stop_IT
                0x08013294                HAL_TIM_Encoder_Start
                0x0801335c                HAL_TIM_Encoder_Stop
                0x0801343a                HAL_TIM_Encoder_Start_IT
                0x0801352e                HAL_TIM_Encoder_Stop_IT
                0x08013636                HAL_TIM_Encoder_Start_DMA
                0x0801388c                HAL_TIM_Encoder_Stop_DMA
 .text          0x080139b0      0xe40 ./build/stm32h7xx_hal_pcd.o
                0x08013a82                HAL_PCD_Init
                0x08013bbe                HAL_PCD_MspDeInit
                0x08013bc0                HAL_PCD_DeInit
                0x08013bee                HAL_PCD_Start
                0x08013c30                HAL_PCD_Stop
                0x08013c7a                HAL_PCD_DataOutStageCallback
                0x08013d80                HAL_PCD_DataInStageCallback
                0x08013d82                HAL_PCD_SetupStageCallback
                0x08013dd4                HAL_PCD_SOFCallback
                0x08013dd6                HAL_PCD_ResetCallback
                0x08013dd8                HAL_PCD_SuspendCallback
                0x08013dda                HAL_PCD_ResumeCallback
                0x08013ddc                HAL_PCD_ISOOUTIncompleteCallback
                0x08013dde                HAL_PCD_ISOINIncompleteCallback
                0x08013de0                HAL_PCD_ConnectCallback
                0x08013de2                HAL_PCD_DisconnectCallback
                0x08013de4                HAL_PCD_DevConnect
                0x08013e20                HAL_PCD_DevDisconnect
                0x08013e5c                HAL_PCD_SetAddress
                0x08013e84                HAL_PCD_EP_Open
                0x08013f0e                HAL_PCD_EP_Close
                0x08013f80                HAL_PCD_EP_Receive
                0x08013fde                HAL_PCD_EP_GetRxCount
                0x08013ff0                HAL_PCD_EP_Transmit
                0x0801404e                HAL_PCD_EP_SetStall
                0x080140d6                HAL_PCD_EP_ClrStall
                0x0801414c                HAL_PCD_EP_Abort
                0x08014180                HAL_PCD_IRQHandler
                0x08014786                HAL_PCD_EP_Flush
                0x080147bc                HAL_PCD_ActivateRemoteWakeup
                0x080147c6                HAL_PCD_DeActivateRemoteWakeup
                0x080147d0                HAL_PCD_GetState
                0x080147d6                HAL_PCD_SetTestMode
 .text          0x080147f0      0x540 ./build/stm32h7xx_hal_dcmi.o
                0x08014890                HAL_DCMI_MspInit
                0x08014892                HAL_DCMI_Init
                0x08014930                HAL_DCMI_MspDeInit
                0x08014932                HAL_DCMI_DeInit
                0x08014948                HAL_DCMI_Start_DMA
                0x08014a34                HAL_DCMI_Stop
                0x08014ab8                HAL_DCMI_Suspend
                0x08014b30                HAL_DCMI_Resume
                0x08014b68                HAL_DCMI_ErrorCallback
                0x08014b8a                HAL_DCMI_LineEventCallback
                0x08014b8c                HAL_DCMI_VsyncEventCallback
                0x08014b8e                HAL_DCMI_FrameEventCallback
                0x08014b90                HAL_DCMI_IRQHandler
                0x08014c40                HAL_DCMI_ConfigCrop
                0x08014c80                HAL_DCMI_DisableCrop
                0x08014cb0                HAL_DCMI_EnableCrop
                0x08014ce0                HAL_DCMI_ConfigSyncUnmask
                0x08014d24                HAL_DCMI_GetState
                0x08014d2a                HAL_DCMI_GetError
 .text          0x08014d30     0x1d24 ./build/stm32h7xx_hal_usart.o
                0x0801552c                HAL_USART_MspInit
                0x0801552e                HAL_USART_Init
                0x08015588                HAL_USART_MspDeInit
                0x0801558a                HAL_USART_DeInit
                0x080155ba                HAL_USART_Transmit
                0x080156ac                HAL_USART_Receive
                0x080157f8                HAL_USART_TransmitReceive
                0x080159c4                HAL_USART_Transmit_IT
                0x08015a70                HAL_USART_Receive_IT
                0x08015bc4                HAL_USART_TransmitReceive_IT
                0x08015d74                HAL_USART_Transmit_DMA
                0x08015e0c                HAL_USART_Receive_DMA
                0x08015f04                HAL_USART_TransmitReceive_DMA
                0x08016008                HAL_USART_DMAPause
                0x08016080                HAL_USART_DMAResume
                0x080160ec                HAL_USART_DMAStop
                0x0801614c                HAL_USART_Abort
                0x08016208                HAL_USART_TxCpltCallback
                0x0801624e                HAL_USART_TxHalfCpltCallback
                0x0801625a                HAL_USART_RxCpltCallback
                0x0801625c                HAL_USART_RxHalfCpltCallback
                0x08016268                HAL_USART_TxRxCpltCallback
                0x080166de                HAL_USART_ErrorCallback
                0x08016706                HAL_USART_IRQHandler
                0x08016900                HAL_USART_AbortCpltCallback
                0x08016902                HAL_USART_Abort_IT
                0x08016a48                HAL_USART_GetState
                0x08016a4e                HAL_USART_GetError
 .text          0x08016a54      0x228 ./build/stm32h7xx_hal_crc.o
                0x08016b2a                HAL_CRC_MspInit
                0x08016b2c                HAL_CRC_Init
                0x08016bac                HAL_CRC_MspDeInit
                0x08016bae                HAL_CRC_DeInit
                0x08016be4                HAL_CRC_Accumulate
                0x08016c26                HAL_CRC_Calculate
                0x08016c76                HAL_CRC_GetState
 .text          0x08016c7c      0x310 ./build/stm32h7xx_hal_opamp_ex.o
                0x08016c7c                HAL_OPAMPEx_SelfCalibrateAll
                0x08016f6c                HAL_OPAMPEx_Unlock
 .text          0x08016f8c      0x468 ./build/stm32h7xx_hal_dac.o
                0x08016f8c                HAL_DAC_MspInit
                0x08016f8e                HAL_DAC_Init
                0x08016fb2                HAL_DAC_MspDeInit
                0x08016fb4                HAL_DAC_DeInit
                0x08016fd0                HAL_DAC_Start
                0x08017038                HAL_DAC_Stop
                0x08017058                HAL_DAC_Start_DMA
                0x08017154                HAL_DAC_Stop_DMA
                0x080171aa                HAL_DAC_SetValue
                0x080171d8                HAL_DAC_ConvCpltCallbackCh1
                0x080171da                DAC_DMAConvCpltCh1
                0x080171ea                HAL_DAC_ConvHalfCpltCallbackCh1
                0x080171ec                DAC_DMAHalfConvCpltCh1
                0x080171f6                HAL_DAC_ErrorCallbackCh1
                0x080171f8                DAC_DMAErrorCh1
                0x08017210                HAL_DAC_DMAUnderrunCallbackCh1
                0x08017212                HAL_DAC_IRQHandler
                0x08017282                HAL_DAC_GetValue
                0x08017290                HAL_DAC_ConfigChannel
                0x080173ec                HAL_DAC_GetState
                0x080173f0                HAL_DAC_GetError
 .text          0x080173f4      0x664 ./build/stm32h7xx_hal_pwr_ex.o
                0x080173f4                HAL_PWREx_ConfigSupply
                0x08017448                HAL_PWREx_GetSupplyConfig
                0x08017458                HAL_PWREx_ControlVoltageScaling
                0x0801752c                HAL_PWREx_GetVoltageRange
                0x0801753c                HAL_PWREx_ControlStopModeVoltageScaling
                0x08017550                HAL_PWREx_GetStopModeVoltageRange
                0x08017560                HAL_PWREx_EnterSTOPMode
                0x080175c8                HAL_PWREx_ClearPendingEvent
                0x080175cc                HAL_PWREx_EnterSTANDBYMode
                0x0801760c                HAL_PWREx_ConfigD3Domain
                0x08017620                HAL_PWREx_EnableFlashPowerDown
                0x08017630                HAL_PWREx_DisableFlashPowerDown
                0x08017640                HAL_PWREx_EnableWakeUpPin
                0x080176e8                HAL_PWREx_DisableWakeUpPin
                0x080176f8                HAL_PWREx_GetWakeupFlag
                0x08017704                HAL_PWREx_ClearWakeupFlag
                0x08017720                HAL_PWREx_WKUP1_Callback
                0x08017722                HAL_PWREx_WKUP2_Callback
                0x08017724                HAL_PWREx_WKUP3_Callback
                0x08017726                HAL_PWREx_WKUP4_Callback
                0x08017728                HAL_PWREx_WKUP5_Callback
                0x0801772a                HAL_PWREx_WKUP6_Callback
                0x0801772c                HAL_PWREx_WAKEUP_PIN_IRQHandler
                0x080177c4                HAL_PWREx_EnableBkUpReg
                0x080177f8                HAL_PWREx_DisableBkUpReg
                0x0801782c                HAL_PWREx_EnableUSBReg
                0x08017860                HAL_PWREx_DisableUSBReg
                0x08017894                HAL_PWREx_EnableUSBVoltageDetector
                0x080178a4                HAL_PWREx_DisableUSBVoltageDetector
                0x080178b4                HAL_PWREx_EnableBatteryCharging
                0x080178d0                HAL_PWREx_DisableBatteryCharging
                0x080178e0                HAL_PWREx_EnableMonitoring
                0x080178f0                HAL_PWREx_DisableMonitoring
                0x08017900                HAL_PWREx_GetTemperatureLevel
                0x0801791c                HAL_PWREx_GetVBATLevel
                0x08017938                HAL_PWREx_ConfigAVD
                0x080179d0                HAL_PWREx_EnableAVD
                0x080179e0                HAL_PWREx_DisableAVD
                0x080179f0                HAL_PWREx_AVDCallback
                0x080179f2                HAL_PWREx_PVD_AVD_IRQHandler
 .text          0x08017a58        0x0 ./build/stm32h7xx_hal_cordic.o
 .text          0x08017a58        0x0 ./build/stm32h7xx_hal_dsi.o
 .text          0x08017a58      0x3fc ./build/stm32h7xx_ll_adc.o
                0x08017a58                LL_ADC_CommonDeInit
                0x08017aa0                LL_ADC_CommonInit
                0x08017b24                LL_ADC_CommonStructInit
                0x08017b34                LL_ADC_DeInit
                0x08017d44                LL_ADC_Init
                0x08017d7c                LL_ADC_StructInit
                0x08017d86                LL_ADC_REG_Init
                0x08017de8                LL_ADC_REG_StructInit
                0x08017dfc                LL_ADC_INJ_Init
                0x08017e48                LL_ADC_INJ_StructInit
 .text          0x08017e54       0x70 ./build/stm32h7xx_ll_swpmi.o
                0x08017e54                LL_SWPMI_DeInit
                0x08017e84                LL_SWPMI_Init
                0x08017eb4                LL_SWPMI_StructInit
 .text          0x08017ec4        0x8 ./build/stm32h7xx_hal_msp_template.o
                0x08017ec4                HAL_MspInit
                0x08017ec6                HAL_MspDeInit
                0x08017ec8                HAL_PPP_MspInit
                0x08017eca                HAL_PPP_MspDeInit
 .text          0x08017ecc      0x3b0 ./build/stm32h7xx_hal_opamp.o
                0x08017ecc                HAL_OPAMP_MspInit
                0x08017ece                HAL_OPAMP_Init
                0x08017fd0                HAL_OPAMP_MspDeInit
                0x08017fd2                HAL_OPAMP_DeInit
                0x08018000                HAL_OPAMP_Start
                0x08018036                HAL_OPAMP_Stop
                0x0801807a                HAL_OPAMP_SelfCalibrate
                0x08018206                HAL_OPAMP_Lock
                0x08018224                HAL_OPAMP_GetTrimOffset
                0x0801826c                HAL_OPAMP_GetState
 .text          0x0801827c      0xfe4 ./build/stm32h7xx_hal_rcc.o
                0x0801827c                HAL_RCC_DeInit
                0x08018448                HAL_RCC_OscConfig
                0x08018abc                HAL_RCC_MCOConfig
                0x08018b60                HAL_RCC_EnableCSS
                0x08018b70                HAL_RCC_DisableCSS
                0x08018b80                HAL_RCC_GetSysClockFreq
                0x08018d74                HAL_RCC_ClockConfig
                0x08019008                HAL_RCC_GetHCLKFreq
                0x0801904c                HAL_RCC_GetPCLK1Freq
                0x08019070                HAL_RCC_GetPCLK2Freq
                0x08019094                HAL_RCC_GetOscConfig
                0x080191e8                HAL_RCC_GetClockConfig
                0x0801923c                HAL_RCC_CSSCallback
                0x0801923e                HAL_RCC_NMI_IRQHandler
 .text          0x08019260      0x3dc ./build/stm32h7xx_hal_exti.o
                0x08019260                HAL_EXTI_SetConfigLine
                0x080193a4                HAL_EXTI_GetConfigLine
                0x080194b0                HAL_EXTI_ClearConfigLine
                0x0801959c                HAL_EXTI_RegisterCallback
                0x080195ae                HAL_EXTI_GetHandle
                0x080195ba                HAL_EXTI_IRQHandler
                0x080195e4                HAL_EXTI_GetPending
                0x08019604                HAL_EXTI_ClearPending
                0x08019620                HAL_EXTI_GenerateSWI
 .text          0x0801963c     0x1884 ./build/stm32h7xx_hal_sd.o
                0x08019b7e                HAL_SD_MspDeInit
                0x08019b80                HAL_SD_DeInit
                0x08019ba4                HAL_SD_ReadBlocks
                0x08019da8                HAL_SD_WriteBlocks
                0x08019fbc                HAL_SD_ReadBlocks_IT
                0x0801a090                HAL_SD_WriteBlocks_IT
                0x0801a160                HAL_SD_ReadBlocks_DMA
                0x0801a240                HAL_SD_WriteBlocks_DMA
                0x0801a320                HAL_SD_Erase
                0x0801a418                HAL_SD_GetState
                0x0801a41e                HAL_SD_GetError
                0x0801a422                HAL_SD_TxCpltCallback
                0x0801a424                HAL_SD_RxCpltCallback
                0x0801a426                HAL_SD_ErrorCallback
                0x0801a428                HAL_SD_AbortCallback
                0x0801a42a                HAL_SD_GetCardCID
                0x0801a47c                HAL_SD_GetCardCSD
                0x0801a730                HAL_SD_InitCard
                0x0801a7f4                HAL_SD_GetCardStatus
                0x0801a8c4                HAL_SD_GetCardInfo
                0x0801a8e8                HAL_SD_ConfigWideBusOperation
                0x0801aa3c                HAL_SD_GetCardState
                0x0801aa5e                HAL_SD_Init
                0x0801ab18                HAL_SD_ConfigSpeedBusOperation
                0x0801abf8                HAL_SD_Abort
                0x0801ac40                HAL_SD_Abort_IT
                0x0801ac8c                HAL_SDEx_Read_DMADoubleBuf0CpltCallback
                0x0801ac8e                HAL_SDEx_Read_DMADoubleBuf1CpltCallback
                0x0801ac90                HAL_SDEx_Write_DMADoubleBuf0CpltCallback
                0x0801ac92                HAL_SDEx_Write_DMADoubleBuf1CpltCallback
                0x0801ac94                HAL_SD_IRQHandler
 .text          0x0801aec0       0xe8 ./build/stm32h7xx_ll_lpuart.o
                0x0801aec0                LL_LPUART_DeInit
                0x0801aef0                LL_LPUART_Init
                0x0801af90                LL_LPUART_StructInit
 .text          0x0801afa8     0x169c ./build/stm32h7xx_hal_eth.o
                0x0801afa8                HAL_ETH_RxAllocateCallback
                0x0801b042                HAL_ETH_RxLinkCallback
                0x0801b044                HAL_ETH_TxFreeCallback
                0x0801b7a8                HAL_ETH_MspInit
                0x0801b7aa                HAL_ETH_MspDeInit
                0x0801b7ac                HAL_ETH_DeInit
                0x0801b7c2                HAL_ETH_Start
                0x0801b840                HAL_ETH_Start_IT
                0x0801b8fc                HAL_ETH_Stop
                0x0801b95c                HAL_ETH_Stop_IT
                0x0801b9f0                HAL_ETH_Transmit
                0x0801bac0                HAL_ETH_Transmit_IT
                0x0801bb28                HAL_ETH_ReadData
                0x0801bc26                HAL_ETH_RegisterRxAllocateCallback
                0x0801bc34                HAL_ETH_UnRegisterRxAllocateCallback
                0x0801bc44                HAL_ETH_RegisterRxLinkCallback
                0x0801bc52                HAL_ETH_UnRegisterRxLinkCallback
                0x0801bc60                HAL_ETH_GetRxDataErrorCode
                0x0801bc6c                HAL_ETH_RegisterTxFreeCallback
                0x0801bc7a                HAL_ETH_UnRegisterTxFreeCallback
                0x0801bc88                HAL_ETH_ReleaseTxPacket
                0x0801bce6                HAL_ETH_TxCpltCallback
                0x0801bce8                HAL_ETH_RxCpltCallback
                0x0801bcea                HAL_ETH_ErrorCallback
                0x0801bcec                HAL_ETH_PMTCallback
                0x0801bcee                HAL_ETH_EEECallback
                0x0801bcf0                HAL_ETH_WakeUpCallback
                0x0801bcf2                HAL_ETH_IRQHandler
                0x0801be7e                HAL_ETH_ReadPHYRegister
                0x0801bede                HAL_ETH_WritePHYRegister
                0x0801bf44                HAL_ETH_GetMACConfig
                0x0801c12a                HAL_ETH_GetDMAConfig
                0x0801c1ec                HAL_ETH_SetMACConfig
                0x0801c208                HAL_ETH_SetDMAConfig
                0x0801c224                HAL_ETH_SetMDIOClockRange
                0x0801c29c                HAL_ETH_Init
                0x0801c3e8                HAL_ETH_SetMACFilterConfig
                0x0801c448                HAL_ETH_GetMACFilterConfig
                0x0801c4c6                HAL_ETH_SetSourceMACAddrMatch
                0x0801c516                HAL_ETH_SetHashTable
                0x0801c52e                HAL_ETH_SetRxVLANIdentifier
                0x0801c570                HAL_ETH_EnterPowerDownMode
                0x0801c5b0                HAL_ETH_ExitPowerDownMode
                0x0801c5ec                HAL_ETH_SetWakeUpFilter
                0x0801c626                HAL_ETH_GetState
                0x0801c62c                HAL_ETH_GetError
                0x0801c632                HAL_ETH_GetDMAError
                0x0801c638                HAL_ETH_GetMACError
                0x0801c63e                HAL_ETH_GetMACWakeUpSource
 .text          0x0801c644        0x0 ./build/stm32h7xx_hal_i2s_ex.o
 .text          0x0801c644      0xc70 ./build/stm32h7xx_hal_dma2d.o
                0x0801c6e2                HAL_DMA2D_MspInit
                0x0801c6e4                HAL_DMA2D_Init
                0x0801c768                HAL_DMA2D_MspDeInit
                0x0801c76a                HAL_DMA2D_Start
                0x0801c7a2                HAL_DMA2D_Start_IT
                0x0801c7e4                HAL_DMA2D_BlendingStart
                0x0801c85a                HAL_DMA2D_BlendingStart_IT
                0x0801c8da                HAL_DMA2D_Abort
                0x0801c934                HAL_DMA2D_Suspend
                0x0801c992                HAL_DMA2D_Resume
                0x0801c9b2                HAL_DMA2D_EnableCLUT
                0x0801c9e8                HAL_DMA2D_CLUTStartLoad
                0x0801ca60                HAL_DMA2D_CLUTStartLoad_IT
                0x0801caec                HAL_DMA2D_CLUTLoad
                0x0801cb70                HAL_DMA2D_CLUTLoad_IT
                0x0801cc08                HAL_DMA2D_CLUTLoading_Abort
                0x0801cc6c                HAL_DMA2D_DeInit
                0x0801cd00                HAL_DMA2D_CLUTLoading_Suspend
                0x0801cd98                HAL_DMA2D_CLUTLoading_Resume
                0x0801cdda                HAL_DMA2D_PollForTransfer
                0x0801cf18                HAL_DMA2D_LineEventCallback
                0x0801cf1a                HAL_DMA2D_CLUTLoadingCpltCallback
                0x0801cf1c                HAL_DMA2D_IRQHandler
                0x0801d058                HAL_DMA2D_ConfigLayer
                0x0801d15c                HAL_DMA2D_ConfigCLUT
                0x0801d1d4                HAL_DMA2D_ProgramLineEvent
                0x0801d212                HAL_DMA2D_EnableDeadTime
                0x0801d240                HAL_DMA2D_DisableDeadTime
                0x0801d270                HAL_DMA2D_ConfigDeadTime
                0x0801d2aa                HAL_DMA2D_GetState
                0x0801d2b0                HAL_DMA2D_GetError
 .text          0x0801d2b4     0x3690 ./build/stm32h7xx_hal_i2c.o
                0x0801d7e8                HAL_I2C_Init
                0x0801d8a4                HAL_I2C_MspDeInit
                0x0801d8a6                HAL_I2C_DeInit
                0x0801d8d8                HAL_I2C_Master_Transmit
                0x0801da54                HAL_I2C_Master_Receive
                0x0801dbd0                HAL_I2C_Slave_Transmit
                0x0801dd80                HAL_I2C_Slave_Receive
                0x0801df04                HAL_I2C_Master_Transmit_IT
                0x0801df9c                HAL_I2C_Master_Receive_IT
                0x0801e034                HAL_I2C_Slave_Transmit_IT
                0x0801e098                HAL_I2C_Slave_Receive_IT
                0x0801e0fc                HAL_I2C_Master_Transmit_DMA
                0x0801e250                HAL_I2C_Master_Receive_DMA
                0x0801e3a0                HAL_I2C_Slave_Transmit_DMA
                0x0801e490                HAL_I2C_Slave_Receive_DMA
                0x0801e584                HAL_I2C_Mem_Write
                0x0801e72e                HAL_I2C_Mem_Read
                0x0801e8e0                HAL_I2C_Mem_Write_IT
                0x0801e9c4                HAL_I2C_Mem_Read_IT
                0x0801eaac                HAL_I2C_Mem_Write_DMA
                0x0801ec14                HAL_I2C_Mem_Read_DMA
                0x0801ed80                HAL_I2C_IsDeviceReady
                0x0801eeec                HAL_I2C_Master_Seq_Transmit_IT
                0x0801efa0                HAL_I2C_Master_Seq_Transmit_DMA
                0x0801f114                HAL_I2C_Master_Seq_Receive_IT
                0x0801f1c8                HAL_I2C_Master_Seq_Receive_DMA
                0x0801f33c                HAL_I2C_Slave_Seq_Transmit_IT
                0x0801f418                HAL_I2C_Slave_Seq_Transmit_DMA
                0x0801f5bc                HAL_I2C_Slave_Seq_Receive_IT
                0x0801f698                HAL_I2C_Slave_Seq_Receive_DMA
                0x0801f83c                HAL_I2C_EnableListen_IT
                0x0801f868                HAL_I2C_DisableListen_IT
                0x0801f8a2                HAL_I2C_Master_Abort_IT
                0x0801f928                HAL_I2C_EV_IRQHandler
                0x0801f938                HAL_I2C_MasterTxCpltCallback
                0x0801f93a                HAL_I2C_MasterRxCpltCallback
                0x0801f990                HAL_I2C_SlaveTxCpltCallback
                0x0801f992                HAL_I2C_SlaveRxCpltCallback
                0x0801fad8                HAL_I2C_AddrCallback
                0x0801fb7a                HAL_I2C_ListenCpltCallback
                0x0801fbe4                HAL_I2C_MemTxCpltCallback
                0x0801fbe6                HAL_I2C_MemRxCpltCallback
                0x0801fbe8                HAL_I2C_ErrorCallback
                0x0801fbea                HAL_I2C_AbortCpltCallback
                0x080208b0                HAL_I2C_ER_IRQHandler
                0x08020934                HAL_I2C_GetState
                0x0802093a                HAL_I2C_GetMode
                0x08020940                HAL_I2C_GetError
 .text          0x08020944       0x74 ./build/stm32h7xx_hal_iwdg.o
                0x08020944                HAL_IWDG_Init
                0x080209ac                HAL_IWDG_Refresh
 .text          0x080209b8      0x44c ./build/stm32h7xx_hal_flash.o
                0x080209b8                HAL_FLASH_EndOfOperationCallback
                0x080209ba                HAL_FLASH_OperationErrorCallback
                0x080209bc                HAL_FLASH_IRQHandler
                0x08020abc                HAL_FLASH_Unlock
                0x08020af0                HAL_FLASH_Lock
                0x08020b10                HAL_FLASH_OB_Unlock
                0x08020b44                HAL_FLASH_OB_Lock
                0x08020b64                HAL_FLASH_GetError
                0x08020b70                FLASH_WaitForLastOperation
                0x08020bf4                HAL_FLASH_Program
                0x08020c7c                HAL_FLASH_Program_IT
                0x08020d04                FLASH_OB_WaitForLastOperation
                0x08020d64                FLASH_CRC_WaitForLastOperation
                0x08020dd8                HAL_FLASH_OB_Launch
 .text          0x08020e04     0x15b0 ./build/stm32h7xx_hal_smartcard.o
                0x08021446                HAL_SMARTCARD_MspInit
                0x08021448                HAL_SMARTCARD_Init
                0x080214c8                HAL_SMARTCARD_MspDeInit
                0x080214ca                HAL_SMARTCARD_DeInit
                0x08021512                HAL_SMARTCARD_Transmit
                0x08021670                HAL_SMARTCARD_Receive
                0x08021708                HAL_SMARTCARD_Transmit_IT
                0x080217ec                HAL_SMARTCARD_Receive_IT
                0x08021888                HAL_SMARTCARD_Transmit_DMA
                0x0802197c                HAL_SMARTCARD_Receive_DMA
                0x08021a20                HAL_SMARTCARD_Abort
                0x08021ad0                HAL_SMARTCARD_AbortTransmit
                0x08021b46                HAL_SMARTCARD_AbortReceive
                0x08021bc8                HAL_SMARTCARD_TxCpltCallback
                0x08021c8c                HAL_SMARTCARD_RxCpltCallback
                0x08021de8                HAL_SMARTCARD_ErrorCallback
                0x08021e42                HAL_SMARTCARD_IRQHandler
                0x080220e4                HAL_SMARTCARD_AbortCpltCallback
                0x080220e6                HAL_SMARTCARD_Abort_IT
                0x08022238                HAL_SMARTCARD_AbortTransmitCpltCallback
                0x0802223a                HAL_SMARTCARD_AbortTransmit_IT
                0x080222e4                HAL_SMARTCARD_AbortReceiveCpltCallback
                0x080222e6                HAL_SMARTCARD_AbortReceive_IT
                0x080223a2                HAL_SMARTCARD_GetState
                0x080223ae                HAL_SMARTCARD_GetError
 .text          0x080223b4      0x214 ./build/stm32h7xx_hal_pwr.o
                0x080223b4                HAL_PWR_DeInit
                0x080223b6                HAL_PWR_EnableBkUpAccess
                0x080223c8                HAL_PWR_DisableBkUpAccess
                0x080223d8                HAL_PWR_ConfigPVD
                0x08022478                HAL_PWR_EnablePVD
                0x08022488                HAL_PWR_DisablePVD
                0x08022498                HAL_PWR_EnableWakeUpPin
                0x080224b0                HAL_PWR_DisableWakeUpPin
                0x080224c4                HAL_PWR_EnterSLEEPMode
                0x080224e0                HAL_PWR_EnterSTOPMode
                0x0802252c                HAL_PWR_EnterSTANDBYMode
                0x0802255c                HAL_PWR_EnableSleepOnExit
                0x0802256c                HAL_PWR_DisableSleepOnExit
                0x0802257c                HAL_PWR_EnableSEVOnPend
                0x0802258c                HAL_PWR_DisableSEVOnPend
                0x0802259c                HAL_PWR_PVDCallback
                0x0802259e                HAL_PWR_PVD_IRQHandler
 .text          0x080225c8      0x9a8 ./build/stm32h7xx_hal_rtc.o
                0x080225c8                HAL_RTC_MspInit
                0x080225ca                HAL_RTC_MspDeInit
                0x080225cc                HAL_RTC_DeactivateAlarm
                0x08022696                HAL_RTC_AlarmAEventCallback
                0x08022698                HAL_RTC_AlarmIRQHandler
                0x080226f6                HAL_RTC_PollForAlarmAEvent
                0x0802273c                HAL_RTC_WaitForSynchro
                0x0802276e                HAL_RTC_GetState
                0x08022774                RTC_EnterInitMode
                0x080227b8                RTC_ExitInitMode
                0x08022808                HAL_RTC_Init
                0x080228a0                HAL_RTC_DeInit
                0x08022974                RTC_ByteToBcd2
                0x0802298a                HAL_RTC_SetTime
                0x08022a54                HAL_RTC_SetDate
                0x08022afc                HAL_RTC_SetAlarm
                0x08022c86                HAL_RTC_SetAlarm_IT
                0x08022e28                RTC_Bcd2ToByte
                0x08022e3a                HAL_RTC_GetTime
                0x08022e86                HAL_RTC_GetDate
                0x08022ec2                HAL_RTC_GetAlarm
 .text          0x08022f70      0x24c ./build/stm32h7xx_hal_ramecc.o
                0x08022f70                HAL_RAMECC_Init
                0x08022fb2                HAL_RAMECC_DeInit
                0x08022ff0                HAL_RAMECC_StartMonitor
                0x08023016                HAL_RAMECC_StopMonitor
                0x0802303c                HAL_RAMECC_EnableNotification
                0x080230a0                HAL_RAMECC_DisableNotification
                0x08023108                HAL_RAMECC_RegisterCallback
                0x0802312c                HAL_RAMECC_UnRegisterCallback
                0x08023144                HAL_RAMECC_IRQHandler
                0x08023180                HAL_RAMECC_GetFailingAddress
                0x08023186                HAL_RAMECC_GetFailingDataLow
                0x0802318c                HAL_RAMECC_GetFailingDataHigh
                0x08023192                HAL_RAMECC_GetHammingErrorCode
                0x08023198                HAL_RAMECC_IsECCSingleErrorDetected
                0x080231a6                HAL_RAMECC_IsECCDoubleErrorDetected
                0x080231b4                HAL_RAMECC_GetState
                0x080231b8                HAL_RAMECC_GetError
 .text          0x080231bc      0x2f0 ./build/stm32h7xx_ll_usart.o
                0x080231bc                LL_USART_DeInit
                0x08023304                LL_USART_Init
                0x08023458                LL_USART_StructInit
                0x08023472                LL_USART_ClockInit
                0x080234a0                LL_USART_ClockStructInit
 .text          0x080234ac      0xb30 ./build/stm32h7xx_hal_spdifrx.o
                0x0802355c                HAL_SPDIFRX_MspInit
                0x0802355e                HAL_SPDIFRX_Init
                0x080235ec                HAL_SPDIFRX_MspDeInit
                0x080235ee                HAL_SPDIFRX_DeInit
                0x0802361a                HAL_SPDIFRX_SetDataFormat
                0x08023676                HAL_SPDIFRX_ReceiveDataFlow
                0x0802372c                HAL_SPDIFRX_ReceiveCtrlFlow
                0x080237e2                HAL_SPDIFRX_ReceiveDataFlow_IT
                0x08023910                HAL_SPDIFRX_ReceiveCtrlFlow_IT
                0x08023a40                HAL_SPDIFRX_ReceiveDataFlow_DMA
                0x08023b98                HAL_SPDIFRX_ReceiveCtrlFlow_DMA
                0x08023cf0                HAL_SPDIFRX_DMAStop
                0x08023e34                HAL_SPDIFRX_RxHalfCpltCallback
                0x08023e40                HAL_SPDIFRX_RxCpltCallback
                0x08023eb0                HAL_SPDIFRX_CxHalfCpltCallback
                0x08023ebc                HAL_SPDIFRX_CxCpltCallback
                0x08023f22                HAL_SPDIFRX_ErrorCallback
                0x08023f52                HAL_SPDIFRX_IRQHandler
                0x08023fd0                HAL_SPDIFRX_GetState
                0x08023fd6                HAL_SPDIFRX_GetError
 .text          0x08023fdc       0x30 ./build/stm32h7xx_ll_crc.o
                0x08023fdc                LL_CRC_DeInit
 .text          0x0802400c      0x1cc ./build/stm32h7xx_hal_mdios.o
                0x0802400c                HAL_MDIOS_MspInit
                0x0802400e                HAL_MDIOS_Init
                0x08024050                HAL_MDIOS_MspDeInit
                0x08024052                HAL_MDIOS_DeInit
                0x08024076                HAL_MDIOS_WriteReg
                0x08024098                HAL_MDIOS_ReadReg
                0x080240bc                HAL_MDIOS_GetWrittenRegAddress
                0x080240c2                HAL_MDIOS_GetReadRegAddress
                0x080240c8                HAL_MDIOS_ClearWriteRegAddress
                0x080240e6                HAL_MDIOS_ClearReadRegAddress
                0x08024104                HAL_MDIOS_EnableEvents
                0x08024124                HAL_MDIOS_WriteCpltCallback
                0x08024126                HAL_MDIOS_ReadCpltCallback
                0x08024128                HAL_MDIOS_ErrorCallback
                0x0802412a                HAL_MDIOS_WakeUpCallback
                0x0802412c                HAL_MDIOS_IRQHandler
                0x080241ce                HAL_MDIOS_GetError
                0x080241d2                HAL_MDIOS_GetState
 .text          0x080241d8      0x15c ./build/stm32h7xx_hal_spi_ex.o
                0x080241d8                HAL_SPIEx_FlushRxFifo
                0x08024234                HAL_SPIEx_EnableLockConfiguration
                0x080242a0                HAL_SPIEx_ConfigureUnderrun
 .text          0x08024334        0x0 ./build/stm32h7xx_ll_cordic.o
 .text          0x08024334      0x558 ./build/stm32h7xx_hal_uart_ex.o
                0x080243a8                HAL_RS485Ex_Init
                0x08024430                HAL_UARTEx_WakeupCallback
                0x08024432                HAL_UARTEx_RxFifoFullCallback
                0x08024434                HAL_UARTEx_TxFifoEmptyCallback
                0x08024436                HAL_MultiProcessorEx_AddressLength_Set
                0x0802446e                HAL_UARTEx_StopModeWakeUpSourceConfig
                0x080244f0                HAL_UARTEx_EnableStopMode
                0x0802451e                HAL_UARTEx_DisableStopMode
                0x0802454c                HAL_UARTEx_EnableFifoMode
                0x08024594                HAL_UARTEx_DisableFifoMode
                0x080245d2                HAL_UARTEx_SetTxFifoThreshold
                0x0802461c                HAL_UARTEx_SetRxFifoThreshold
                0x08024666                HAL_UARTEx_ReceiveToIdle
                0x080247d6                HAL_UARTEx_ReceiveToIdle_IT
                0x08024830                HAL_UARTEx_ReceiveToIdle_DMA
 .text          0x0802488c     0x10bc ./build/stm32h7xx_hal_dfsdm.o
                0x08024a9a                HAL_DFSDM_ChannelMspInit
                0x08024a9c                HAL_DFSDM_ChannelInit
                0x08024ba0                HAL_DFSDM_ChannelMspDeInit
                0x08024ba2                HAL_DFSDM_ChannelDeInit
                0x08024c04                HAL_DFSDM_ChannelCkabStart
                0x08024c64                HAL_DFSDM_ChannelPollForCkab
                0x08024cc4                HAL_DFSDM_ChannelCkabStop
                0x08024cf8                HAL_DFSDM_ChannelCkabStart_IT
                0x08024d64                HAL_DFSDM_ChannelCkabCallback
                0x08024d66                HAL_DFSDM_ChannelCkabStop_IT
                0x08024da0                HAL_DFSDM_ChannelScdStart
                0x08024dd8                HAL_DFSDM_ChannelPollForScd
                0x08024e34                HAL_DFSDM_ChannelScdStop
                0x08024e68                HAL_DFSDM_ChannelScdStart_IT
                0x08024eb0                HAL_DFSDM_ChannelScdCallback
                0x08024eb2                HAL_DFSDM_ChannelScdStop_IT
                0x08024eec                HAL_DFSDM_ChannelGetAwdValue
                0x08024ef4                HAL_DFSDM_ChannelModifyOffset
                0x08024f16                HAL_DFSDM_ChannelGetState
                0x08024f1c                HAL_DFSDM_FilterMspInit
                0x08024f1e                HAL_DFSDM_FilterInit
                0x08025044                HAL_DFSDM_FilterMspDeInit
                0x08025046                HAL_DFSDM_FilterDeInit
                0x08025066                HAL_DFSDM_FilterConfigRegChannel
                0x080250b4                HAL_DFSDM_FilterConfigInjChannel
                0x080250e6                HAL_DFSDM_FilterRegularStart
                0x08025100                HAL_DFSDM_FilterRegularStop
                0x0802511a                HAL_DFSDM_FilterRegularStart_IT
                0x0802513e                HAL_DFSDM_FilterRegularStop_IT
                0x08025162                HAL_DFSDM_FilterRegularStart_DMA
                0x0802520c                HAL_DFSDM_FilterRegularMsbStart_DMA
                0x080252b8                HAL_DFSDM_FilterRegularStop_DMA
                0x080252ea                HAL_DFSDM_FilterGetRegularValue
                0x080252f8                HAL_DFSDM_FilterInjectedStart
                0x08025312                HAL_DFSDM_FilterInjectedStop
                0x0802532c                HAL_DFSDM_FilterInjectedStart_IT
                0x08025350                HAL_DFSDM_FilterInjectedStop_IT
                0x08025374                HAL_DFSDM_FilterInjectedStart_DMA
                0x08025418                HAL_DFSDM_FilterInjectedMsbStart_DMA
                0x080254bc                HAL_DFSDM_FilterInjectedStop_DMA
                0x080254ee                HAL_DFSDM_FilterGetInjectedValue
                0x080254fc                HAL_DFSDM_FilterAwdStart_IT
                0x08025576                HAL_DFSDM_FilterAwdStop_IT
                0x080255c0                HAL_DFSDM_FilterExdStart
                0x080255f0                HAL_DFSDM_FilterExdStop
                0x08025620                HAL_DFSDM_FilterGetExdMaxValue
                0x0802562e                HAL_DFSDM_FilterGetExdMinValue
                0x0802563c                HAL_DFSDM_FilterGetConvTimeValue
                0x08025644                HAL_DFSDM_FilterRegConvCpltCallback
                0x08025650                HAL_DFSDM_FilterRegConvHalfCpltCallback
                0x0802565c                HAL_DFSDM_FilterInjConvCpltCallback
                0x08025668                HAL_DFSDM_FilterInjConvHalfCpltCallback
                0x08025674                HAL_DFSDM_FilterAwdCallback
                0x08025676                HAL_DFSDM_FilterErrorCallback
                0x08025678                HAL_DFSDM_FilterPollForRegConversion
                0x08025700                HAL_DFSDM_FilterPollForInjConversion
                0x0802578e                HAL_DFSDM_IRQHandler
                0x0802593c                HAL_DFSDM_FilterGetState
                0x08025942                HAL_DFSDM_FilterGetError
 .text          0x08025948      0x2d4 ./build/stm32h7xx_hal_cortex.o
                0x08025948                HAL_NVIC_SetPriorityGrouping
                0x0802596c                HAL_NVIC_SetPriority
                0x080259d8                HAL_NVIC_EnableIRQ
                0x080259f4                HAL_NVIC_DisableIRQ
                0x08025a18                HAL_NVIC_SystemReset
                0x08025a3c                HAL_SYSTICK_Config
                0x08025a64                HAL_MPU_Disable
                0x08025a80                HAL_MPU_Enable
                0x08025aa0                HAL_MPU_ConfigRegion
                0x08025b00                HAL_NVIC_GetPriorityGrouping
                0x08025b10                HAL_NVIC_GetPriority
                0x08025b6c                HAL_NVIC_SetPendingIRQ
                0x08025b88                HAL_NVIC_GetPendingIRQ
                0x08025bac                HAL_NVIC_ClearPendingIRQ
                0x08025bc8                HAL_NVIC_GetActive
                0x08025bec                HAL_SYSTICK_CLKSourceConfig
                0x08025c0c                HAL_SYSTICK_Callback
                0x08025c0e                HAL_SYSTICK_IRQHandler
                0x08025c16                HAL_GetCurrentCPUID
 .text          0x08025c1c       0xe4 ./build/stm32h7xx_hal_hsem.o
                0x08025c1c                HAL_HSEM_Take
                0x08025c40                HAL_HSEM_FastTake
                0x08025c60                HAL_HSEM_IsSemTaken
                0x08025c78                HAL_HSEM_Release
                0x08025c88                HAL_HSEM_ReleaseAll
                0x08025c9c                HAL_HSEM_SetClearKey
                0x08025cb4                HAL_HSEM_GetClearKey
                0x08025cc4                HAL_HSEM_ActivateNotification
                0x08025cd4                HAL_HSEM_DeactivateNotification
                0x08025ce4                HAL_HSEM_FreeCallback
                0x08025ce6                HAL_HSEM_IRQHandler
 .text          0x08025d00      0x434 ./build/stm32h7xx_ll_fmc.o
                0x08025d00                FMC_NORSRAM_Init
                0x08025d94                FMC_NORSRAM_DeInit
                0x08025dc8                FMC_NORSRAM_Timing_Init
                0x08025e2c                FMC_NORSRAM_Extended_Timing_Init
                0x08025e70                FMC_NORSRAM_WriteOperation_Enable
                0x08025e80                FMC_NORSRAM_WriteOperation_Disable
                0x08025e90                FMC_NAND_Init
                0x08025ec8                FMC_NAND_CommonSpace_Timing_Init
                0x08025ee4                FMC_NAND_AttributeSpace_Timing_Init
                0x08025f00                FMC_NAND_DeInit
                0x08025f1c                FMC_NAND_ECC_Enable
                0x08025f28                FMC_NAND_ECC_Disable
                0x08025f34                FMC_NAND_GetECC
                0x08025f6e                FMC_SDRAM_Init
                0x08025fe4                FMC_SDRAM_Timing_Init
                0x0802608c                FMC_SDRAM_DeInit
                0x080260aa                FMC_SDRAM_WriteProtection_Enable
                0x080260ba                FMC_SDRAM_WriteProtection_Disable
                0x080260ca                FMC_SDRAM_SendCommand
                0x080260f8                FMC_SDRAM_ProgramRefreshRate
                0x0802610c                FMC_SDRAM_SetAutoRefreshNumber
                0x0802611e                FMC_SDRAM_GetModeStatus
 .text          0x08026134        0x0 ./build/stm32h7xx_hal_rng_ex.o
 .text          0x08026134      0x210 ./build/stm32h7xx_hal_smartcard_ex.o
                0x0802617c                HAL_SMARTCARDEx_BlockLength_Config
                0x0802618c                HAL_SMARTCARDEx_TimeOut_Config
                0x0802619a                HAL_SMARTCARDEx_EnableReceiverTimeOut
                0x080261d8                HAL_SMARTCARDEx_DisableReceiverTimeOut
                0x08026216                HAL_SMARTCARDEx_RxFifoFullCallback
                0x08026218                HAL_SMARTCARDEx_TxFifoEmptyCallback
                0x0802621a                HAL_SMARTCARDEx_EnableFifoMode
                0x08026262                HAL_SMARTCARDEx_DisableFifoMode
                0x080262a0                HAL_SMARTCARDEx_SetTxFifoThreshold
                0x080262f2                HAL_SMARTCARDEx_SetRxFifoThreshold
 .text          0x08026344       0x24 ./build/stm32h7xx_ll_crs.o
                0x08026344                LL_CRS_DeInit
 .text          0x08026368      0xd4c ./build/stm32h7xx_hal_lptim.o
                0x080263a4                HAL_LPTIM_MspInit
                0x080263a6                HAL_LPTIM_Init
                0x08026478                HAL_LPTIM_MspDeInit
                0x0802647a                HAL_LPTIM_PWM_Start
                0x080264d6                HAL_LPTIM_OnePulse_Start
                0x08026538                HAL_LPTIM_SetOnce_Start
                0x08026598                HAL_LPTIM_Encoder_Start
                0x080265ec                HAL_LPTIM_TimeOut_Start
                0x08026648                HAL_LPTIM_Counter_Start
                0x080266a0                HAL_LPTIM_ReadCounter
                0x080266a6                HAL_LPTIM_ReadAutoReload
                0x080266ac                HAL_LPTIM_ReadCapturedValue
                0x080266b2                HAL_LPTIM_CompareMatchCallback
                0x080266b4                HAL_LPTIM_AutoReloadMatchCallback
                0x080266b6                HAL_LPTIM_TriggerCallback
                0x080266b8                HAL_LPTIM_CompareWriteCallback
                0x080266ba                HAL_LPTIM_AutoReloadWriteCallback
                0x080266bc                HAL_LPTIM_DirectionUpCallback
                0x080266be                HAL_LPTIM_DirectionDownCallback
                0x080266c0                HAL_LPTIM_IRQHandler
                0x08026796                HAL_LPTIM_GetState
                0x0802679c                LPTIM_Disable
                0x08026a34                HAL_LPTIM_DeInit
                0x08026a64                HAL_LPTIM_PWM_Stop
                0x08026a86                HAL_LPTIM_PWM_Start_IT
                0x08026b38                HAL_LPTIM_PWM_Stop_IT
                0x08026b96                HAL_LPTIM_OnePulse_Stop
                0x08026bb8                HAL_LPTIM_OnePulse_Start_IT
                0x08026c70                HAL_LPTIM_OnePulse_Stop_IT
                0x08026cce                HAL_LPTIM_SetOnce_Stop
                0x08026cf0                HAL_LPTIM_SetOnce_Start_IT
                0x08026da8                HAL_LPTIM_SetOnce_Stop_IT
                0x08026e06                HAL_LPTIM_Encoder_Stop
                0x08026e32                HAL_LPTIM_Encoder_Start_IT
                0x08026eb4                HAL_LPTIM_Encoder_Stop_IT
                0x08026ef4                HAL_LPTIM_TimeOut_Stop
                0x08026f20                HAL_LPTIM_TimeOut_Start_IT
                0x08026fa0                HAL_LPTIM_TimeOut_Stop_IT
                0x08026fd6                HAL_LPTIM_Counter_Stop
                0x08026ff8                HAL_LPTIM_Counter_Start_IT
                0x0802707e                HAL_LPTIM_Counter_Stop_IT
 .text          0x080270b4      0x134 ./build/stm32h7xx_ll_i2c.o
                0x080270b4                LL_I2C_DeInit
                0x08027160                LL_I2C_Init
                0x080271d0                LL_I2C_StructInit
 .text          0x080271e8      0x430 ./build/stm32h7xx_hal_comp.o
                0x080271e8                HAL_COMP_MspInit
                0x080271ea                HAL_COMP_Init
                0x0802738c                HAL_COMP_MspDeInit
                0x0802738e                HAL_COMP_DeInit
                0x080273b8                HAL_COMP_Start
                0x0802741c                HAL_COMP_Stop
                0x0802744a                HAL_COMP_Start_IT
                0x080274b8                HAL_COMP_Stop_IT
                0x080274f4                HAL_COMP_Lock
                0x08027538                HAL_COMP_GetOutputLevel
                0x0802755c                HAL_COMP_TriggerCallback
                0x0802755e                HAL_COMP_IRQHandler
                0x08027604                HAL_COMP_GetState
                0x08027612                HAL_COMP_GetError
 .text          0x08027618      0x2cc ./build/stm32h7xx_ll_gpio.o
                0x08027618                LL_GPIO_DeInit
                0x080277f0                LL_GPIO_Init
                0x080278cc                LL_GPIO_StructInit
 .text          0x080278e4     0x20d4 ./build/stm32h7xx_hal_mmc.o
                0x08027eac                HAL_MMC_MspInit
                0x08027eae                HAL_MMC_MspDeInit
                0x08027eb0                HAL_MMC_DeInit
                0x08027ed4                HAL_MMC_ReadBlocks
                0x080280dc                HAL_MMC_WriteBlocks
                0x080282f8                HAL_MMC_ReadBlocks_IT
                0x080283ec                HAL_MMC_WriteBlocks_IT
                0x080284e0                HAL_MMC_ReadBlocks_DMA
                0x080285e0                HAL_MMC_WriteBlocks_DMA
                0x080286e4                HAL_MMC_Erase
                0x080287f4                HAL_MMC_GetState
                0x080287fa                HAL_MMC_GetError
                0x080287fe                HAL_MMC_TxCpltCallback
                0x08028800                HAL_MMC_RxCpltCallback
                0x08028802                HAL_MMC_ErrorCallback
                0x08028804                HAL_MMC_AbortCallback
                0x08028806                HAL_MMC_GetCardCID
                0x08028858                HAL_MMC_GetCardCSD
                0x08028a1c                HAL_MMC_GetCardInfo
                0x08028a3c                HAL_MMC_GetCardExtCSD
                0x08028cb8                HAL_MMC_InitCard
                0x08028d7c                HAL_MMC_ConfigWideBusOperation
                0x08028ea8                HAL_MMC_Init
                0x08028ef2                HAL_MMC_GetCardState
                0x08028f14                HAL_MMC_ConfigSpeedBusOperation
                0x080290a4                HAL_MMC_Abort
                0x080290ec                HAL_MMC_Abort_IT
                0x08029138                HAL_MMC_EraseSequence
                0x0802926c                HAL_MMC_Sanitize
                0x08029354                HAL_MMC_GetSupportedSecRemovalType
                0x0802937c                HAL_MMC_ConfigSecRemovalType
                0x08029464                HAL_MMC_SleepDevice
                0x08029644                HAL_MMC_AwakeDevice
                0x0802978c                HAL_MMCEx_Read_DMADoubleBuf0CpltCallback
                0x0802978e                HAL_MMCEx_Read_DMADoubleBuf1CpltCallback
                0x08029790                HAL_MMCEx_Write_DMADoubleBuf0CpltCallback
                0x08029792                HAL_MMCEx_Write_DMADoubleBuf1CpltCallback
                0x08029794                HAL_MMC_IRQHandler
 .text          0x080299b8     0x1d84 ./build/stm32h7xx_hal_spi.o
                0x08029caa                HAL_SPI_Init
                0x08029ed0                HAL_SPI_MspDeInit
                0x08029ed2                HAL_SPI_DeInit
                0x08029f00                HAL_SPI_Transmit
                0x0802a1c4                HAL_SPI_TransmitReceive
                0x0802a4d6                HAL_SPI_Receive
                0x0802a744                HAL_SPI_Transmit_IT
                0x0802a824                HAL_SPI_TransmitReceive_IT
                0x0802aa58                HAL_SPI_Receive_IT
                0x0802ab64                HAL_SPI_Transmit_DMA
                0x0802ad20                HAL_SPI_TransmitReceive_DMA
                0x0802af9c                HAL_SPI_Receive_DMA
                0x0802b178                HAL_SPI_Abort
                0x0802b268                HAL_SPI_DMAPause
                0x0802b278                HAL_SPI_DMAResume
                0x0802b288                HAL_SPI_DMAStop
                0x0802b298                HAL_SPI_TxCpltCallback
                0x0802b2c4                HAL_SPI_RxCpltCallback
                0x0802b2f0                HAL_SPI_TxRxCpltCallback
                0x0802b31c                HAL_SPI_TxHalfCpltCallback
                0x0802b328                HAL_SPI_RxHalfCpltCallback
                0x0802b334                HAL_SPI_TxRxHalfCpltCallback
                0x0802b340                HAL_SPI_ErrorCallback
                0x0802b370                HAL_SPI_IRQHandler
                0x0802b5ca                HAL_SPI_AbortCpltCallback
                0x0802b5cc                HAL_SPI_Abort_IT
                0x0802b730                HAL_SPI_GetState
                0x0802b736                HAL_SPI_GetError
 .text          0x0802b73c      0x618 ./build/stm32h7xx_ll_rtc.o
                0x0802b73c                LL_RTC_StructInit
                0x0802b74a                LL_RTC_TIME_StructInit
                0x0802b756                LL_RTC_DATE_StructInit
                0x0802b764                LL_RTC_ALMA_Init
                0x0802b89c                LL_RTC_ALMB_Init
                0x0802b9d4                LL_RTC_ALMA_StructInit
                0x0802b9e8                LL_RTC_ALMB_StructInit
                0x0802b9fc                LL_RTC_EnterInitMode
                0x0802ba54                LL_RTC_Init
                0x0802baa4                LL_RTC_ExitInitMode
                0x0802baae                LL_RTC_WaitForSynchro
                0x0802bb40                LL_RTC_DeInit
                0x0802bb94                LL_RTC_TIME_Init
                0x0802bc78                LL_RTC_DATE_Init
 .text          0x0802bd54     0x268c ./build/stm32h7xx_hal_uart.o
                0x0802bf7a                HAL_UART_MspDeInit
                0x0802bf7c                HAL_UART_DeInit
                0x0802bfbe                HAL_UART_Transmit_IT
                0x0802c084                HAL_UART_Transmit_DMA
                0x0802c13c                HAL_UART_DMAPause
                0x0802c1e0                HAL_UART_DMAResume
                0x0802c274                HAL_UART_DMAStop
                0x0802c322                HAL_UART_Abort
                0x0802c440                HAL_UART_AbortTransmit
                0x0802c4d8                HAL_UART_AbortReceive
                0x0802c5f8                HAL_UART_TxHalfCpltCallback
                0x0802c676                HAL_UART_AbortCpltCallback
                0x0802c678                HAL_UART_Abort_IT
                0x0802c854                HAL_UART_AbortTransmitCpltCallback
                0x0802c856                HAL_UART_AbortTransmit_IT
                0x0802c92e                HAL_UART_AbortReceiveCpltCallback
                0x0802c930                HAL_UART_AbortReceive_IT
                0x0802ca28                HAL_UARTEx_RxEventCallback
                0x0802ca2a                HAL_UART_IRQHandler
                0x0802d318                HAL_UART_ReceiverTimeout_Config
                0x0802d330                HAL_UART_EnableReceiverTimeout
                0x0802d37c                HAL_UART_DisableReceiverTimeout
                0x0802d3c8                HAL_MultiProcessor_EnterMuteMode
                0x0802d3d4                HAL_HalfDuplex_EnableTransmitter
                0x0802d420                HAL_HalfDuplex_EnableReceiver
                0x0802d46c                HAL_LIN_SendBreak
                0x0802d49e                HAL_UART_GetState
                0x0802d4aa                HAL_UART_GetError
                0x0802d4b0                UART_SetConfig
                0x0802daa4                UART_AdvFeatureConfig
                0x0802db6e                UART_WaitOnFlagUntilTimeout
                0x0802dc4a                HAL_UART_Transmit
                0x0802dd24                HAL_UART_Receive
                0x0802de4c                UART_CheckIdleState
                0x0802dec0                HAL_UART_Init
                0x0802df26                HAL_HalfDuplex_Init
                0x0802df98                HAL_LIN_Init
                0x0802e02e                HAL_MultiProcessor_Init
                0x0802e0bc                HAL_MultiProcessor_EnableMuteMode
                0x0802e0f4                HAL_MultiProcessor_DisableMuteMode
                0x0802e12c                UART_Start_Receive_IT
                0x0802e274                HAL_UART_Receive_IT
                0x0802e2d0                UART_Start_Receive_DMA
                0x0802e384                HAL_UART_Receive_DMA
 .text          0x0802e3e0      0x508 ./build/stm32h7xx_hal_sdram.o
                0x0802e3e0                HAL_SDRAM_MspInit
                0x0802e3e2                HAL_SDRAM_Init
                0x0802e430                HAL_SDRAM_MspDeInit
                0x0802e432                HAL_SDRAM_DeInit
                0x0802e44e                HAL_SDRAM_RefreshErrorCallback
                0x0802e450                HAL_SDRAM_IRQHandler
                0x0802e470                HAL_SDRAM_DMA_XferCpltCallback
                0x0802e4a6                HAL_SDRAM_DMA_XferErrorCallback
                0x0802e4c2                HAL_SDRAM_Read_8b
                0x0802e51a                HAL_SDRAM_Write_8b
                0x0802e570                HAL_SDRAM_Read_16b
                0x0802e5d8                HAL_SDRAM_Write_16b
                0x0802e650                HAL_SDRAM_Read_32b
                0x0802e6a0                HAL_SDRAM_Write_32b
                0x0802e6f6                HAL_SDRAM_Read_DMA
                0x0802e768                HAL_SDRAM_Write_DMA
                0x0802e7cc                HAL_SDRAM_WriteProtection_Enable
                0x0802e800                HAL_SDRAM_WriteProtection_Disable
                0x0802e82e                HAL_SDRAM_SendCommand
                0x0802e870                HAL_SDRAM_ProgramRefreshRate
                0x0802e8a2                HAL_SDRAM_SetAutoRefreshNumber
                0x0802e8d4                HAL_SDRAM_GetModeStatus
                0x0802e8e0                HAL_SDRAM_GetState
 .text          0x0802e8e8       0x5a ./build/stm32h7xx_hal_wwdg.o
                0x0802e8e8                HAL_WWDG_MspInit
                0x0802e8ea                HAL_WWDG_Init
                0x0802e914                HAL_WWDG_Refresh
                0x0802e91e                HAL_WWDG_EarlyWakeupCallback
                0x0802e920                HAL_WWDG_IRQHandler
 *fill*         0x0802e942        0x2 
 .text          0x0802e944       0x10 ./build/stm32h7xx_ll_pwr.o
                0x0802e944                LL_PWR_DeInit
 .text          0x0802e954       0xf4 ./build/stm32h7xx_hal_smbus_ex.o
                0x0802e954                HAL_SMBUSEx_EnableWakeUp
                0x0802e99c                HAL_SMBUSEx_DisableWakeUp
                0x0802e9e4                HAL_SMBUSEx_EnableFastModePlus
                0x0802ea14                HAL_SMBUSEx_DisableFastModePlus
 .text          0x0802ea48        0x0 ./build/stm32h7xx_hal_pssi.o
 .text          0x0802ea48      0x1e8 ./build/stm32h7xx_hal_rng.o
                0x0802ea48                HAL_RNG_MspInit
                0x0802ea4a                HAL_RNG_Init
                0x0802eaca                HAL_RNG_MspDeInit
                0x0802eacc                HAL_RNG_DeInit
                0x0802eb02                HAL_RNG_GenerateRandomNumber
                0x0802eb70                HAL_RNG_GenerateRandomNumber_IT
                0x0802eba4                HAL_RNG_ReadLastRandomNumber
                0x0802eba8                HAL_RNG_ReadyDataCallback
                0x0802ebaa                HAL_RNG_ErrorCallback
                0x0802ebac                HAL_RNG_IRQHandler
                0x0802ec28                HAL_RNG_GetState
                0x0802ec2c                HAL_RNG_GetError
 .text          0x0802ec30      0x688 ./build/stm32h7xx_hal_flash_ex.o
                0x0802ef00                HAL_FLASHEx_OBProgram
                0x0802efcc                HAL_FLASHEx_OBGetConfig
                0x0802f03a                HAL_FLASHEx_Unlock_Bank1
                0x0802f06c                HAL_FLASHEx_Lock_Bank1
                0x0802f080                HAL_FLASHEx_ComputeCRC
                0x0802f134                FLASH_Erase_Sector
                0x0802f158                HAL_FLASHEx_Erase
                0x0802f220                HAL_FLASHEx_Erase_IT
 .text          0x0802f2b8     0x11dc ./build/stm32h7xx_ll_rcc.o
                0x0802f344                LL_RCC_DeInit
                0x0802f410                LL_RCC_CalcPLLClockFreq
                0x0802f460                LL_RCC_GetPLL1ClockFreq
                0x0802f5c8                LL_RCC_GetSystemClocksFreq
                0x0802f5f8                LL_RCC_GetPLL2ClockFreq
                0x0802f6f8                LL_RCC_GetPLL3ClockFreq
                0x0802f7fc                LL_RCC_GetUSARTClockFreq
                0x0802f948                LL_RCC_GetLPUARTClockFreq
                0x0802f9f8                LL_RCC_GetI2CClockFreq
                0x0802fafc                LL_RCC_GetSDMMCClockFreq
                0x0802fb40                LL_RCC_GetRNGClockFreq
                0x0802fbc0                LL_RCC_GetCECClockFreq
                0x0802fc14                LL_RCC_GetUSBClockFreq
                0x0802fc78                LL_RCC_GetDFSDMClockFreq
                0x0802fcb8                LL_RCC_GetSPDIFClockFreq
                0x0802fd40                LL_RCC_GetSWPClockFreq
                0x0802fd94                LL_RCC_GetFDCANClockFreq
                0x0802fdf4                LL_RCC_GetCLKPClockFreq
                0x0802fe54                LL_RCC_GetLPTIMClockFreq
                0x0802ffec                LL_RCC_GetSAIClockFreq
                0x08030160                LL_RCC_GetADCClockFreq
                0x080301b8                LL_RCC_GetSPIClockFreq
                0x0803039c                LL_RCC_GetFMCClockFreq
                0x08030414                LL_RCC_GetQSPIClockFreq
 .text          0x08030494     0x1460 ./build/stm32h7xx_ll_usb.o
                0x080304e4                USB_CoreInit
                0x08030580                USB_SetTurnaroundTime
                0x08030664                USB_EnableGlobalInt
                0x08030670                USB_DisableGlobalInt
                0x0803067c                USB_FlushTxFifo
                0x080306cc                USB_FlushRxFifo
                0x08030718                USB_SetDevSpeed
                0x08030726                USB_DevInit
                0x080308ac                USB_GetDevSpeed
                0x080308ca                USB_ActivateEndpoint
                0x08030964                USB_ActivateDedicatedEndpoint
                0x08030a00                USB_DeactivateEndpoint
                0x08030ae0                USB_DeactivateDedicatedEndpoint
                0x08030b80                USB_EP0StartXfer
                0x08030ca0                USB_EPStopXfer
                0x08030d5e                USB_WritePacket
                0x08030d8c                USB_EPStartXfer
                0x08030fbc                USB_ReadPacket
                0x08031010                USB_EPSetStall
                0x0803106a                USB_EPClearStall
                0x080310c6                USB_StopDevice
                0x08031106                USB_SetDevAddress
                0x08031126                USB_DevConnect
                0x08031142                USB_DevDisconnect
                0x0803115e                USB_ReadInterrupts
                0x08031166                USB_ReadDevAllOutEpInterrupt
                0x08031176                USB_ReadDevAllInEpInterrupt
                0x08031186                USB_ReadDevOutEPInterrupt
                0x08031198                USB_ReadDevInEPInterrupt
                0x080311c0                USB_ClearInterrupts
                0x080311c8                USB_GetMode
                0x080311d0                USB_SetCurrentMode
                0x08031232                USB_ActivateSetup
                0x08031254                USB_EP0_OutStart
                0x080312b4                USB_HostInit
                0x080313a4                USB_InitFSLSPClkSel
                0x080313e2                USB_ResetPort
                0x08031420                USB_DriveVbus
                0x08031466                USB_GetHostSpeed
                0x0803147c                USB_GetCurrentFrame
                0x08031486                USB_HC_Init
                0x080315b4                USB_HC_ReadInterrupt
                0x080315be                USB_HC_Halt
                0x080316a6                USB_DoPing
                0x080316c8                USB_HC_StartXfer
                0x08031838                USB_StopHost
                0x080318ca                USB_ActivateRemoteWakeup
                0x080318e4                USB_DeActivateRemoteWakeup
 .text          0x080318f4     0x10c0 ./build/stm32h7xx_hal_irda.o
                0x08031dd4                HAL_IRDA_MspInit
                0x08031dd6                HAL_IRDA_Init
                0x08031e36                HAL_IRDA_MspDeInit
                0x08031e38                HAL_IRDA_DeInit
                0x08031e62                HAL_IRDA_Transmit
                0x08031f2e                HAL_IRDA_Receive
                0x08032034                HAL_IRDA_Transmit_IT
                0x0803207c                HAL_IRDA_Receive_IT
                0x08032124                HAL_IRDA_Transmit_DMA
                0x080321bc                HAL_IRDA_Receive_DMA
                0x08032260                HAL_IRDA_DMAPause
                0x080322c4                HAL_IRDA_DMAResume
                0x08032322                HAL_IRDA_DMAStop
                0x080323a8                HAL_IRDA_Abort
                0x0803243e                HAL_IRDA_AbortTransmit
                0x0803248a                HAL_IRDA_AbortReceive
                0x080324e6                HAL_IRDA_TxCpltCallback
                0x0803252c                HAL_IRDA_TxHalfCpltCallback
                0x08032538                HAL_IRDA_RxCpltCallback
                0x080325ee                HAL_IRDA_RxHalfCpltCallback
                0x080325fa                HAL_IRDA_ErrorCallback
                0x08032648                HAL_IRDA_IRQHandler
                0x08032790                HAL_IRDA_AbortCpltCallback
                0x08032792                HAL_IRDA_Abort_IT
                0x080328b0                HAL_IRDA_AbortTransmitCpltCallback
                0x080328b2                HAL_IRDA_AbortTransmit_IT
                0x0803291e                HAL_IRDA_AbortReceiveCpltCallback
                0x08032920                HAL_IRDA_AbortReceive_IT
                0x080329a8                HAL_IRDA_GetState
                0x080329b0                HAL_IRDA_GetError
 .text          0x080329b4      0xb04 ./build/stm32h7xx_hal_nor.o
                0x080329b4                HAL_NOR_MspInit
                0x080329b6                HAL_NOR_MspDeInit
                0x080329b8                HAL_NOR_DeInit
                0x080329d6                HAL_NOR_MspWait
                0x080329d8                HAL_NOR_Read_ID
                0x08032b08                HAL_NOR_ReturnToReadMode
                0x08032b92                HAL_NOR_Init
                0x08032c78                HAL_NOR_Read
                0x08032d60                HAL_NOR_Program
                0x08032e40                HAL_NOR_ReadBuffer
                0x08032f30                HAL_NOR_ProgramBuffer
                0x08033040                HAL_NOR_Erase_Block
                0x08033174                HAL_NOR_Erase_Chip
                0x08033280                HAL_NOR_Read_CFI
                0x08033360                HAL_NOR_WriteOperation_Enable
                0x0803339e                HAL_NOR_WriteOperation_Disable
                0x080333de                HAL_NOR_GetState
                0x080333e4                HAL_NOR_GetStatus
 .text          0x080334b8      0x308 ./build/stm32h7xx_ll_exti.o
                0x080334b8                LL_EXTI_DeInit
                0x08033518                LL_EXTI_Init
                0x080337aa                LL_EXTI_StructInit
 .text          0x080337c0     0x105c ./build/stm32h7xx_hal_smbus.o
                0x0803399a                HAL_SMBUS_MspInit
                0x0803399c                HAL_SMBUS_Init
                0x08033a8c                HAL_SMBUS_MspDeInit
                0x08033a8e                HAL_SMBUS_DeInit
                0x08033ab8                HAL_SMBUS_ConfigAnalogFilter
                0x08033b0e                HAL_SMBUS_ConfigDigitalFilter
                0x08033b60                HAL_SMBUS_Master_Transmit_IT
                0x08033c58                HAL_SMBUS_Master_Receive_IT
                0x08033d30                HAL_SMBUS_Master_Abort_IT
                0x08033da4                HAL_SMBUS_Slave_Transmit_IT
                0x08033e82                HAL_SMBUS_Slave_Receive_IT
                0x08033f42                HAL_SMBUS_EnableListen_IT
                0x08033f52                HAL_SMBUS_DisableListen_IT
                0x08033f6c                HAL_SMBUS_EnableAlert_IT
                0x08033f8a                HAL_SMBUS_DisableAlert_IT
                0x08033fa0                HAL_SMBUS_IsDeviceReady
                0x080340f8                HAL_SMBUS_MasterTxCpltCallback
                0x080340fa                HAL_SMBUS_MasterRxCpltCallback
                0x080340fc                HAL_SMBUS_SlaveTxCpltCallback
                0x080340fe                HAL_SMBUS_SlaveRxCpltCallback
                0x08034100                HAL_SMBUS_AddrCallback
                0x08034102                HAL_SMBUS_ListenCpltCallback
                0x08034104                HAL_SMBUS_ErrorCallback
                0x080341ee                HAL_SMBUS_ER_IRQHandler
                0x08034734                HAL_SMBUS_EV_IRQHandler
                0x08034812                HAL_SMBUS_GetState
                0x08034816                HAL_SMBUS_GetError
 .text          0x0803481c       0x68 ./build/stm32h7xx_ll_comp.o
                0x0803481c                LL_COMP_DeInit
                0x0803482e                LL_COMP_Init
                0x08034868                LL_COMP_StructInit
 .text          0x08034884      0x2b8 ./build/stm32h7xx_hal_cec.o
                0x08034884                HAL_CEC_SetDeviceAddress
                0x080348f0                HAL_CEC_MspInit
                0x080348f2                HAL_CEC_Init
                0x08034970                HAL_CEC_MspDeInit
                0x08034972                HAL_CEC_DeInit
                0x080349b8                HAL_CEC_Transmit_IT
                0x08034a20                HAL_CEC_GetLastReceivedFrameSize
                0x08034a24                HAL_CEC_ChangeRxBuffer
                0x08034a28                HAL_CEC_TxCpltCallback
                0x08034a2a                HAL_CEC_RxCpltCallback
                0x08034a2c                HAL_CEC_ErrorCallback
                0x08034a2e                HAL_CEC_IRQHandler
                0x08034b30                HAL_CEC_GetState
                0x08034b38                HAL_CEC_GetError
 .text          0x08034b3c      0x2d4 ./build/stm32h7xx_ll_spi.o
                0x08034b3c                LL_SPI_DeInit
                0x08034c38                LL_SPI_Init
                0x08034cec                LL_SPI_StructInit
                0x08034d06                LL_I2S_DeInit
                0x08034d0e                LL_I2S_Init
                0x08034de4                LL_I2S_StructInit
                0x08034df4                LL_I2S_ConfigPrescaler
 .text          0x08034e10      0x2c0 ./build/stm32h7xx_ll_lptim.o
                0x08034e10                LL_LPTIM_DeInit
                0x08034ee8                LL_LPTIM_StructInit
                0x08034ef4                LL_LPTIM_Init
                0x08034f28                LL_LPTIM_Disable
 .text          0x080350d0        0x0 ./build/stm32h7xx_hal_dfsdm_ex.o
 .text          0x080350d0        0x0 ./build/stm32h7xx_hal_dts.o
 .text          0x080350d0       0x24 ./build/stm32h7xx_ll_hrtim.o
                0x080350d0                LL_HRTIM_DeInit
 .text          0x080350f4      0x40c ./build/stm32h7xx_hal_dac_ex.o
                0x080350f4                HAL_DACEx_DualStart
                0x08035156                HAL_DACEx_DualStop
                0x08035172                HAL_DACEx_DualStart_DMA
                0x0803525c                HAL_DACEx_DualStop_DMA
                0x080352b0                HAL_DACEx_TriangleWaveGenerate
                0x080352f2                HAL_DACEx_NoiseWaveGenerate
                0x08035334                HAL_DACEx_DualSetValue
                0x0803534c                HAL_DACEx_ConvCpltCallbackCh2
                0x0803534e                DAC_DMAConvCpltCh2
                0x0803535e                HAL_DACEx_ConvHalfCpltCallbackCh2
                0x08035360                DAC_DMAHalfConvCpltCh2
                0x0803536a                HAL_DACEx_ErrorCallbackCh2
                0x0803536c                DAC_DMAErrorCh2
                0x08035384                HAL_DACEx_DMAUnderrunCallbackCh2
                0x08035386                HAL_DACEx_SelfCalibrate
                0x0803549e                HAL_DACEx_SetUserTrimming
                0x080354e2                HAL_DACEx_GetTrimOffset
                0x080354f4                HAL_DACEx_DualGetValue
 .text          0x08035500      0x9cc ./build/stm32h7xx_ll_tim.o
                0x0803593a                LL_TIM_DeInit
                0x08035b7c                LL_TIM_StructInit
                0x08035b8e                LL_TIM_Init
                0x08035c90                LL_TIM_OC_StructInit
                0x08035ca4                LL_TIM_OC_Init
                0x08035cf8                LL_TIM_IC_StructInit
                0x08035d08                LL_TIM_IC_Init
                0x08035d44                LL_TIM_ENCODER_StructInit
                0x08035d60                LL_TIM_ENCODER_Init
                0x08035dc0                LL_TIM_HALLSENSOR_StructInit
                0x08035dcc                LL_TIM_HALLSENSOR_Init
                0x08035e34                LL_TIM_BDTR_StructInit
                0x08035e4e                LL_TIM_BDTR_Init
 .text          0x08035ecc        0x0 ./build/stm32h7xx_hal_fmac.o
 .text          0x08035ecc      0x1c0 ./build/stm32h7xx_hal_i2c_ex.o
                0x08035ecc                HAL_I2CEx_ConfigAnalogFilter
                0x08035f28                HAL_I2CEx_ConfigDigitalFilter
                0x08035f80                HAL_I2CEx_EnableWakeUp
                0x08035fd4                HAL_I2CEx_DisableWakeUp
                0x08036028                HAL_I2CEx_EnableFastModePlus
                0x08036058                HAL_I2CEx_DisableFastModePlus
 .text          0x0803608c      0x1fc ./build/stm32h7xx_ll_bdma.o
                0x0803608c                LL_BDMA_DeInit
                0x080361f4                LL_BDMA_Init
                0x0803626c                LL_BDMA_StructInit
 .text          0x08036288      0x43c ./build/stm32h7xx_hal_sram.o
                0x08036288                HAL_SRAM_MspInit
                0x0803628a                HAL_SRAM_Init
                0x080362f0                HAL_SRAM_MspDeInit
                0x080362f2                HAL_SRAM_DeInit
                0x08036310                HAL_SRAM_DMA_XferCpltCallback
                0x08036346                HAL_SRAM_DMA_XferErrorCallback
                0x08036362                HAL_SRAM_Read_8b
                0x080363b8                HAL_SRAM_Write_8b
                0x08036408                HAL_SRAM_Read_16b
                0x0803646c                HAL_SRAM_Write_16b
                0x080364d8                HAL_SRAM_Read_32b
                0x0803652a                HAL_SRAM_Write_32b
                0x08036576                HAL_SRAM_Read_DMA
                0x080365e4                HAL_SRAM_Write_DMA
                0x08036640                HAL_SRAM_WriteOperation_Enable
                0x0803667e                HAL_SRAM_WriteOperation_Disable
                0x080366be                HAL_SRAM_GetState
 .text          0x080366c4      0x840 ./build/stm32h7xx_hal_dma_ex.o
                0x0803676c                HAL_DMAEx_MultiBufferStart
                0x08036984                HAL_DMAEx_MultiBufferStart_IT
                0x08036d1c                HAL_DMAEx_ChangeMemory
                0x08036da4                HAL_DMAEx_ConfigMuxSync
                0x08036e14                HAL_DMAEx_ConfigMuxRequestGenerator
                0x08036e6e                HAL_DMAEx_EnableMuxRequestGenerator
                0x08036e8c                HAL_DMAEx_DisableMuxRequestGenerator
                0x08036eaa                HAL_DMAEx_MUX_IRQHandler
 .text          0x08036f04       0x48 ./build/stm32h7xx_ll_rng.o
                0x08036f04                LL_RNG_DeInit
                0x08036f34                LL_RNG_Init
                0x08036f44                LL_RNG_StructInit
 .text          0x08036f4c        0x0 ./build/stm32h7xx_hal_ltdc_ex.o
 .text          0x08036f4c      0x990 ./build/stm32h7xx_hal_swpmi.o
                0x08037016                HAL_SWPMI_MspInit
                0x08037018                HAL_SWPMI_Init
                0x080370ba                HAL_SWPMI_MspDeInit
                0x080370bc                HAL_SWPMI_DeInit
                0x080370fc                HAL_SWPMI_Transmit
                0x080371ec                HAL_SWPMI_Receive
                0x080372ce                HAL_SWPMI_Transmit_IT
                0x0803734c                HAL_SWPMI_Receive_IT
                0x080373c0                HAL_SWPMI_Transmit_DMA
                0x0803747c                HAL_SWPMI_Receive_DMA
                0x08037538                HAL_SWPMI_DMAStop
                0x080375a0                HAL_SWPMI_EnableLoopback
                0x080375da                HAL_SWPMI_DisableLoopback
                0x08037614                HAL_SWPMI_TxCpltCallback
                0x08037646                HAL_SWPMI_TxHalfCpltCallback
                0x08037652                HAL_SWPMI_RxCpltCallback
                0x080376be                HAL_SWPMI_RxHalfCpltCallback
                0x080376ca                HAL_SWPMI_ErrorCallback
                0x08037752                HAL_SWPMI_IRQHandler
                0x080378d2                HAL_SWPMI_GetState
                0x080378d8                HAL_SWPMI_GetError
 .text          0x080378dc      0x274 ./build/stm32h7xx_hal_hash_ex.o
                0x080378dc                HAL_HASHEx_SHA224_Start
                0x080378f2                HAL_HASHEx_SHA224_Accmlt
                0x080378fe                HAL_HASHEx_SHA224_Accmlt_End
                0x08037914                HAL_HASHEx_SHA256_Start
                0x0803792c                HAL_HASHEx_SHA256_Accmlt
                0x0803793c                HAL_HASHEx_SHA256_Accmlt_End
                0x08037954                HAL_HASHEx_SHA224_Start_IT
                0x08037966                HAL_HASHEx_SHA224_Accmlt_IT
                0x08037972                HAL_HASHEx_SHA224_Accmlt_End_IT
                0x08037984                HAL_HASHEx_SHA256_Start_IT
                0x08037998                HAL_HASHEx_SHA256_Accmlt_IT
                0x080379a8                HAL_HASHEx_SHA256_Accmlt_End_IT
                0x080379bc                HAL_HASHEx_SHA224_Start_DMA
                0x080379c8                HAL_HASHEx_SHA224_Finish
                0x080379d0                HAL_HASHEx_SHA256_Start_DMA
                0x080379e0                HAL_HASHEx_SHA256_Finish
                0x080379e8                HAL_HMACEx_SHA224_Start
                0x080379fe                HAL_HMACEx_SHA256_Start
                0x08037a18                HAL_HMACEx_SHA224_Start_IT
                0x08037a2a                HAL_HMACEx_SHA256_Start_IT
                0x08037a40                HAL_HMACEx_SHA224_Start_DMA
                0x08037a4c                HAL_HMACEx_SHA256_Start_DMA
                0x08037a5c                HAL_HMACEx_MD5_Step1_2_DMA
                0x08037a6c                HAL_HMACEx_MD5_Step2_DMA
                0x08037a82                HAL_HMACEx_MD5_Step2_3_DMA
                0x08037a94                HAL_HMACEx_SHA1_Step1_2_DMA
                0x08037aa4                HAL_HMACEx_SHA1_Step2_DMA
                0x08037aba                HAL_HMACEx_SHA1_Step2_3_DMA
                0x08037ac8                HAL_HMACEx_SHA224_Step1_2_DMA
                0x08037ada                HAL_HMACEx_SHA224_Step2_DMA
                0x08037af2                HAL_HMACEx_SHA224_Step2_3_DMA
                0x08037b06                HAL_HMACEx_SHA256_Step1_2_DMA
                0x08037b1c                HAL_HMACEx_SHA256_Step2_DMA
                0x08037b38                HAL_HMACEx_SHA256_Step2_3_DMA
 .text          0x08037b50      0xfd8 ./build/stm32h7xx_hal_qspi.o
                0x08037d9e                HAL_QSPI_MspInit
                0x08037da0                HAL_QSPI_MspDeInit
                0x08037da2                HAL_QSPI_DeInit
                0x08037dc4                HAL_QSPI_Command
                0x08037e62                HAL_QSPI_Command_IT
                0x08037ef4                HAL_QSPI_Transmit
                0x08037fc6                HAL_QSPI_Receive
                0x080380a4                HAL_QSPI_Transmit_IT
                0x0803811a                HAL_QSPI_Receive_IT
                0x0803819e                HAL_QSPI_Transmit_DMA
                0x080382d4                HAL_QSPI_Receive_DMA
                0x08038418                HAL_QSPI_AutoPolling
                0x080384ce                HAL_QSPI_AutoPolling_IT
                0x0803857c                HAL_QSPI_MemoryMapped
                0x08038614                HAL_QSPI_ErrorCallback
                0x08038652                HAL_QSPI_AbortCpltCallback
                0x08038654                HAL_QSPI_CmdCpltCallback
                0x08038656                HAL_QSPI_RxCpltCallback
                0x08038658                HAL_QSPI_TxCpltCallback
                0x0803865a                HAL_QSPI_FifoThresholdCallback
                0x0803865c                HAL_QSPI_StatusMatchCallback
                0x0803865e                HAL_QSPI_TimeOutCallback
                0x08038660                HAL_QSPI_IRQHandler
                0x080388a0                HAL_QSPI_GetState
                0x080388a6                HAL_QSPI_GetError
                0x080388aa                HAL_QSPI_Abort
                0x0803894a                HAL_QSPI_Abort_IT
                0x080389f6                HAL_QSPI_SetTimeout
                0x080389fa                HAL_QSPI_Init
                0x08038aa0                HAL_QSPI_SetFifoThreshold
                0x08038ae0                HAL_QSPI_GetFifoThreshold
                0x08038aec                HAL_QSPI_SetFlashID
 .text          0x08038b28     0x1188 ./build/stm32h7xx_hal_nand.o
                0x08038b28                HAL_NAND_MspInit
                0x08038b2a                HAL_NAND_Init
                0x08038b88                HAL_NAND_MspDeInit
                0x08038b8a                HAL_NAND_DeInit
                0x08038ba6                HAL_NAND_ITCallback
                0x08038ba8                HAL_NAND_IRQHandler
                0x08038c1c                HAL_NAND_Read_ID
                0x08038ccc                HAL_NAND_Reset
                0x08038d14                HAL_NAND_ConfigDevice
                0x08038d36                HAL_NAND_Erase_Block
                0x08038df0                HAL_NAND_Address_Inc
                0x08038e3a                HAL_NAND_ECC_Enable
                0x08038e6e                HAL_NAND_ECC_Disable
                0x08038ea2                HAL_NAND_GetECC
                0x08038ed8                HAL_NAND_GetState
                0x08038ede                HAL_NAND_Read_Status
                0x08038f08                HAL_NAND_Read_Page_8b
                0x080390ac                HAL_NAND_Read_Page_16b
                0x0803925c                HAL_NAND_Write_Page_8b
                0x080393fc                HAL_NAND_Write_Page_16b
                0x080395a8                HAL_NAND_Read_SpareArea_8b
                0x08039768                HAL_NAND_Read_SpareArea_16b
                0x08039928                HAL_NAND_Write_SpareArea_8b
                0x08039aec                HAL_NAND_Write_SpareArea_16b
 .text          0x08039cb0      0xf0c ./build/stm32h7xx_hal_i2s.o
                0x08039d04                HAL_I2S_MspInit
                0x08039d06                HAL_I2S_Init
                0x08039e80                HAL_I2S_MspDeInit
                0x08039e82                HAL_I2S_DeInit
                0x08039eae                HAL_I2S_Transmit
                0x08039fd6                HAL_I2S_Receive
                0x0803a0d4                HAL_I2SEx_TransmitReceive
                0x0803a258                HAL_I2S_Transmit_IT
                0x0803a300                HAL_I2S_Receive_IT
                0x0803a3ac                HAL_I2SEx_TransmitReceive_IT
                0x0803a470                HAL_I2S_Transmit_DMA
                0x0803a538                HAL_I2S_Receive_DMA
                0x0803a600                HAL_I2SEx_TransmitReceive_DMA
                0x0803a71c                HAL_I2S_DMAPause
                0x0803a7ce                HAL_I2S_DMAResume
                0x0803a822                HAL_I2S_DMAStop
                0x0803a87c                HAL_I2S_TxHalfCpltCallback
                0x0803a888                HAL_I2S_TxCpltCallback
                0x0803a92e                HAL_I2S_RxHalfCpltCallback
                0x0803a93a                HAL_I2S_RxCpltCallback
                0x0803a960                HAL_I2SEx_TxRxHalfCpltCallback
                0x0803a96c                HAL_I2SEx_TxRxCpltCallback
                0x0803aa42                HAL_I2S_ErrorCallback
                0x0803aa6c                HAL_I2S_IRQHandler
                0x0803abb0                HAL_I2S_GetState
                0x0803abb6                HAL_I2S_GetError
 .text          0x0803abbc       0x68 ./build/stm32h7xx_hal_sai_ex.o
                0x0803abbc                HAL_SAIEx_ConfigPdmMicDelay
 .text          0x0803ac24      0x9d8 ./build/stm32h7xx_ll_sdmmc.o
                0x0803ac60                SDMMC_Init
                0x0803ac90                SDMMC_ReadFIFO
                0x0803ac96                SDMMC_WriteFIFO
                0x0803aca0                SDMMC_PowerState_ON
                0x0803acac                SDMMC_PowerState_Cycle
                0x0803acb8                SDMMC_PowerState_OFF
                0x0803acc4                SDMMC_GetPowerState
                0x0803accc                SDMMC_SendCommand
                0x0803acf0                SDMMC_GetCommandResponse
                0x0803acf6                SDMMC_GetResponse
                0x0803acfc                SDMMC_ConfigData
                0x0803ad20                SDMMC_GetDataCounter
                0x0803ad24                SDMMC_GetFIFOCount
                0x0803ad2a                SDMMC_SetSDMMCReadWaitMode
                0x0803ad38                SDMMC_CmdGoIdleState
                0x0803ad5e                SDMMC_GetCmdResp1
                0x0803aebc                SDMMC_CmdBlockLength
                0x0803aeee                SDMMC_CmdReadSingleBlock
                0x0803af20                SDMMC_CmdReadMultiBlock
                0x0803af52                SDMMC_CmdWriteSingleBlock
                0x0803af84                SDMMC_CmdWriteMultiBlock
                0x0803afb6                SDMMC_CmdSDEraseStartAdd
                0x0803afe8                SDMMC_CmdSDEraseEndAdd
                0x0803b01a                SDMMC_CmdEraseStartAdd
                0x0803b04c                SDMMC_CmdEraseEndAdd
                0x0803b07e                SDMMC_CmdErase
                0x0803b0b0                SDMMC_CmdStopTransfer
                0x0803b108                SDMMC_CmdSelDesel
                0x0803b13a                SDMMC_CmdAppCommand
                0x0803b16c                SDMMC_CmdBusWidth
                0x0803b19e                SDMMC_CmdSendSCR
                0x0803b1d0                SDMMC_CmdSetRelAddMmc
                0x0803b204                SDMMC_CmdSleepMmc
                0x0803b236                SDMMC_CmdSendStatus
                0x0803b268                SDMMC_CmdStatusRegister
                0x0803b29a                SDMMC_CmdSwitch
                0x0803b2cc                SDMMC_CmdVoltageSwitch
                0x0803b2fe                SDMMC_CmdSendEXTCSD
                0x0803b330                SDMMC_GetCmdResp2
                0x0803b390                SDMMC_CmdSendCID
                0x0803b3bc                SDMMC_CmdSendCSD
                0x0803b3e8                SDMMC_GetCmdResp3
                0x0803b438                SDMMC_CmdAppOperCommand
                0x0803b464                SDMMC_CmdOpCondition
                0x0803b490                SDMMC_GetCmdResp6
                0x0803b534                SDMMC_CmdSetRelAdd
                0x0803b566                SDMMC_GetCmdResp7
                0x0803b5cc                SDMMC_CmdOperCond
 .text          0x0803b5fc      0xcb8 ./build/stm32h7xx_hal_ltdc.o
                0x0803b7b4                HAL_LTDC_MspInit
                0x0803b7b6                HAL_LTDC_Init
                0x0803b8a8                HAL_LTDC_MspDeInit
                0x0803b8aa                HAL_LTDC_DeInit
                0x0803b914                HAL_LTDC_ErrorCallback
                0x0803b916                HAL_LTDC_LineEventCallback
                0x0803b918                HAL_LTDC_ReloadEventCallback
                0x0803b91a                HAL_LTDC_IRQHandler
                0x0803b9f4                HAL_LTDC_ConfigLayer
                0x0803ba5c                HAL_LTDC_ConfigColorKeying
                0x0803baa6                HAL_LTDC_ConfigCLUT
                0x0803bb2a                HAL_LTDC_EnableColorKeying
                0x0803bb66                HAL_LTDC_DisableColorKeying
                0x0803bba2                HAL_LTDC_EnableCLUT
                0x0803bbde                HAL_LTDC_DisableCLUT
                0x0803bc1a                HAL_LTDC_EnableDither
                0x0803bc50                HAL_LTDC_DisableDither
                0x0803bc84                HAL_LTDC_SetWindowSize
                0x0803bcda                HAL_LTDC_SetWindowPosition
                0x0803bd30                HAL_LTDC_SetPixelFormat
                0x0803bd72                HAL_LTDC_SetAlpha
                0x0803bdb4                HAL_LTDC_SetAddress
                0x0803bdf6                HAL_LTDC_SetPitch
                0x0803be9c                HAL_LTDC_ProgramLineEvent
                0x0803bee4                HAL_LTDC_Reload
                0x0803bf1e                HAL_LTDC_ConfigLayer_NoReload
                0x0803bf82                HAL_LTDC_SetWindowSize_NoReload
                0x0803bfd4                HAL_LTDC_SetWindowPosition_NoReload
                0x0803c026                HAL_LTDC_SetPixelFormat_NoReload
                0x0803c064                HAL_LTDC_SetAlpha_NoReload
                0x0803c0a2                HAL_LTDC_SetAddress_NoReload
                0x0803c0e0                HAL_LTDC_SetPitch_NoReload
                0x0803c17c                HAL_LTDC_ConfigColorKeying_NoReload
                0x0803c1c6                HAL_LTDC_EnableColorKeying_NoReload
                0x0803c1fe                HAL_LTDC_DisableColorKeying_NoReload
                0x0803c236                HAL_LTDC_EnableCLUT_NoReload
                0x0803c26e                HAL_LTDC_DisableCLUT_NoReload
                0x0803c2a6                HAL_LTDC_GetState
                0x0803c2ac                HAL_LTDC_GetError
 .text          0x0803c2b4     0x1f94 ./build/stm32h7xx_hal_dma.o
                0x0803c6d8                HAL_DMA_Init
                0x0803ca7c                HAL_DMA_DeInit
                0x0803cc50                HAL_DMA_Start
                0x0803cd98                HAL_DMA_Start_IT
                0x0803d030                HAL_DMA_Abort
                0x0803d370                HAL_DMA_Abort_IT
                0x0803d5e0                HAL_DMA_PollForTransfer
                0x0803da30                HAL_DMA_IRQHandler
                0x0803e168                HAL_DMA_RegisterCallback
                0x0803e1c8                HAL_DMA_UnRegisterCallback
                0x0803e23e                HAL_DMA_GetState
                0x0803e244                HAL_DMA_GetError
 .text          0x0803e248      0xb94 ./build/stm32h7xx_hal_mdma.o
                0x0803e388                HAL_MDMA_Init
                0x0803e3e8                HAL_MDMA_DeInit
                0x0803e43e                HAL_MDMA_ConfigPostRequestMask
                0x0803e4a4                HAL_MDMA_RegisterCallback
                0x0803e508                HAL_MDMA_UnRegisterCallback
                0x0803e57e                HAL_MDMA_LinkedList_CreateNode
                0x0803e68c                HAL_MDMA_LinkedList_AddNode
                0x0803e774                HAL_MDMA_LinkedList_RemoveNode
                0x0803e846                HAL_MDMA_LinkedList_EnableCircularMode
                0x0803e89e                HAL_MDMA_LinkedList_DisableCircularMode
                0x0803e8f0                HAL_MDMA_Start
                0x0803e968                HAL_MDMA_Start_IT
                0x0803ea14                HAL_MDMA_Abort
                0x0803ea90                HAL_MDMA_Abort_IT
                0x0803eabc                HAL_MDMA_PollForTransfer
                0x0803ebde                HAL_MDMA_GenerateSWRequest
                0x0803ec1e                HAL_MDMA_IRQHandler
                0x0803edd0                HAL_MDMA_GetState
                0x0803edd6                HAL_MDMA_GetError
 .text          0x0803eddc      0x210 ./build/stm32h7xx_hal_mmc_ex.o
                0x0803eddc                HAL_MMCEx_ConfigDMAMultiBuffer
                0x0803ee06                HAL_MMCEx_ReadBlocksDMAMultiBuffer
                0x0803eef8                HAL_MMCEx_WriteBlocksDMAMultiBuffer
                0x0803efdc                HAL_MMCEx_ChangeDMABuffer
 .text          0x0803efec     0x1554 ./build/stm32h7xx_hal_adc_ex.o
                0x0803efec                HAL_ADCEx_Calibration_Start
                0x0803f094                HAL_ADCEx_Calibration_GetValue
                0x0803f0aa                HAL_ADCEx_LinearCalibration_GetValue
                0x0803f13c                HAL_ADCEx_Calibration_SetValue
                0x0803f1b6                HAL_ADCEx_LinearCalibration_SetValue
                0x0803f31c                HAL_ADCEx_LinearCalibration_FactorLoad
                0x0803f378                HAL_ADCEx_InjectedStart
                0x0803f484                HAL_ADCEx_InjectedStop
                0x0803f4d8                HAL_ADCEx_InjectedPollForConversion
                0x0803f5f8                HAL_ADCEx_InjectedStart_IT
                0x0803f748                HAL_ADCEx_InjectedStop_IT
                0x0803f7a8                HAL_ADCEx_MultiModeStart_DMA
                0x0803f8ac                HAL_ADCEx_MultiModeStop_DMA
                0x0803f9cc                HAL_ADCEx_MultiModeGetValue
                0x0803f9f4                HAL_ADCEx_InjectedGetValue
                0x0803fa2c                HAL_ADCEx_InjectedConvCpltCallback
                0x0803fa2e                HAL_ADCEx_InjectedQueueOverflowCallback
                0x0803fa30                HAL_ADCEx_LevelOutOfWindow2Callback
                0x0803fa32                HAL_ADCEx_LevelOutOfWindow3Callback
                0x0803fa34                HAL_ADCEx_EndOfSamplingCallback
                0x0803fa36                HAL_ADCEx_RegularStop
                0x0803fa90                HAL_ADCEx_RegularStop_IT
                0x0803faf4                HAL_ADCEx_RegularStop_DMA
                0x0803fb88                HAL_ADCEx_RegularMultiModeStop_DMA
                0x0803fca8                HAL_ADCEx_InjectedConfigChannel
                0x08040334                HAL_ADCEx_MultiModeConfigChannel
                0x08040498                HAL_ADCEx_EnableInjectedQueue
                0x080404ca                HAL_ADCEx_DisableInjectedQueue
                0x080404fc                HAL_ADCEx_DisableVoltageRegulator
                0x0804051c                HAL_ADCEx_EnterADCDeepPowerDownMode
 .text          0x08040540     0x1930 ./build/stm32h7xx_hal_tim_ex.o
                0x08040612                HAL_TIMEx_HallSensor_MspInit
                0x08040614                HAL_TIMEx_HallSensor_Init
                0x080406f0                HAL_TIMEx_HallSensor_MspDeInit
                0x080406f2                HAL_TIMEx_HallSensor_DeInit
                0x08040740                HAL_TIMEx_HallSensor_Start
                0x08040808                HAL_TIMEx_HallSensor_Stop
                0x0804084a                HAL_TIMEx_HallSensor_Start_IT
                0x0804091c                HAL_TIMEx_HallSensor_Stop_IT
                0x08040968                HAL_TIMEx_HallSensor_Start_DMA
                0x08040a68                HAL_TIMEx_HallSensor_Stop_DMA
                0x08040ab2                HAL_TIMEx_OCN_Start
                0x08040bb4                HAL_TIMEx_OCN_Stop
                0x08040c2a                HAL_TIMEx_OCN_Start_IT
                0x08040d64                HAL_TIMEx_OCN_Stop_IT
                0x08040e26                HAL_TIMEx_OCN_Start_DMA
                0x0804104c                HAL_TIMEx_OCN_Stop_DMA
                0x0804110c                HAL_TIMEx_PWMN_Start
                0x0804120c                HAL_TIMEx_PWMN_Stop
                0x08041282                HAL_TIMEx_PWMN_Start_IT
                0x080413bc                HAL_TIMEx_PWMN_Stop_IT
                0x0804147e                HAL_TIMEx_PWMN_Start_DMA
                0x080416a4                HAL_TIMEx_PWMN_Stop_DMA
                0x08041764                HAL_TIMEx_OnePulseN_Start
                0x080417de                HAL_TIMEx_OnePulseN_Stop
                0x08041850                HAL_TIMEx_OnePulseN_Start_IT
                0x080418e0                HAL_TIMEx_OnePulseN_Stop_IT
                0x08041966                HAL_TIMEx_ConfigCommutEvent
                0x080419f8                HAL_TIMEx_ConfigCommutEvent_IT
                0x08041a8c                HAL_TIMEx_ConfigCommutEvent_DMA
                0x08041b3c                HAL_TIMEx_MasterConfigSynchronization
                0x08041bdc                HAL_TIMEx_ConfigBreakDeadTime
                0x08041c6c                HAL_TIMEx_ConfigBreakInput
                0x08041d3e                HAL_TIMEx_RemapConfig
                0x08041d66                HAL_TIMEx_TISelection
                0x08041dda                HAL_TIMEx_GroupChannel5
                0x08041e18                HAL_TIMEx_CommutCallback
                0x08041e1a                TIMEx_DMACommutationCplt
                0x08041e2a                HAL_TIMEx_CommutHalfCpltCallback
                0x08041e2c                TIMEx_DMACommutationHalfCplt
                0x08041e3c                HAL_TIMEx_BreakCallback
                0x08041e3e                HAL_TIMEx_Break2Callback
                0x08041e40                HAL_TIMEx_HallSensor_GetState
                0x08041e46                HAL_TIMEx_GetChannelNState
 .text          0x08041e70      0x42c ./build/stm32h7xx_hal_eth_ex.o
                0x08041e70                HAL_ETHEx_EnableARPOffload
                0x08041e7c                HAL_ETHEx_DisableARPOffload
                0x08041e88                HAL_ETHEx_SetARPAddressMatch
                0x08041e90                HAL_ETHEx_SetL4FilterConfig
                0x08041ee2                HAL_ETHEx_GetL4FilterConfig
                0x08041f3a                HAL_ETHEx_SetL3FilterConfig
                0x08041fcc                HAL_ETHEx_GetL3FilterConfig
                0x0804207e                HAL_ETHEx_EnableL3L4Filtering
                0x0804208a                HAL_ETHEx_DisableL3L4Filtering
                0x08042096                HAL_ETHEx_GetRxVLANConfig
                0x080420fa                HAL_ETHEx_SetRxVLANConfig
                0x08042154                HAL_ETHEx_SetVLANHashTable
                0x08042168                HAL_ETHEx_GetTxVLANConfig
                0x080421b6                HAL_ETHEx_SetTxVLANConfig
                0x0804220a                HAL_ETHEx_SetTxVLANIdentifier
                0x08042230                HAL_ETHEx_EnableVLANProcessing
                0x0804223c                HAL_ETHEx_DisableVLANProcessing
                0x08042248                HAL_ETHEx_EnterLPIMode
                0x08042276                HAL_ETHEx_ExitLPIMode
                0x08042294                HAL_ETHEx_GetMACLPIEvent
 .text          0x0804229c        0x0 ./build/stm32h7xx_ll_fmac.o
 .text          0x0804229c       0xb2 ./build/stm32h7xx_ll_delayblock.o
                0x0804229c                DelayBlock_Enable
                0x0804232a                DelayBlock_Disable
                0x08042332                DelayBlock_Configure
 *fill*         0x0804234e        0x2 
 .text          0x08042350      0x318 ./build/stm32h7xx_ll_dma2d.o
                0x08042350                LL_DMA2D_DeInit
                0x08042378                LL_DMA2D_StructInit
                0x08042398                LL_DMA2D_ConfigLayer
                0x08042460                LL_DMA2D_LayerCfgStructInit
                0x08042480                LL_DMA2D_ConfigOutputColor
                0x080424f0                LL_DMA2D_GetOutputBlueColor
                0x08042522                LL_DMA2D_GetOutputGreenColor
                0x08042558                LL_DMA2D_GetOutputRedColor
                0x0804258e                LL_DMA2D_GetOutputAlphaColor
                0x080425b4                LL_DMA2D_ConfigSize
                0x080425c4                LL_DMA2D_Init
 .text          0x08042668     0x1374 ./build/stm32h7xx_hal_hash.o
                0x08042a34                HAL_HASH_MspInit
                0x08042a36                HAL_HASH_Init
                0x08042a94                HAL_HASH_MspDeInit
                0x08042a96                HAL_HASH_DeInit
                0x08042acc                HAL_HASH_InCpltCallback
                0x08042c68                HAL_HASH_DgstCpltCallback
                0x08042df8                HAL_HASH_ErrorCallback
                0x08042e2a                HAL_HASH_IRQHandler
                0x08042e50                HAL_HASH_GetState
                0x08042e56                HAL_HASH_GetStatus
                0x08042e5c                HAL_HASH_ContextSaving
                0x08042ea4                HAL_HASH_ContextRestoring
                0x08042edc                HAL_HASH_SwFeed_ProcessSuspend
                0x08042ee4                HAL_HASH_DMAFeed_ProcessSuspend
                0x08042fc4                HAL_HASH_GetError
                0x08042fc8                HASH_Start
                0x08043108                HAL_HASH_MD5_Start
                0x0804311c                HAL_HASH_MD5_Accmlt_End
                0x08043130                HAL_HASH_SHA1_Start
                0x08043144                HAL_HASH_SHA1_Accmlt_End
                0x08043158                HASH_Accumulate
                0x08043204                HAL_HASH_MD5_Accmlt
                0x0804320e                HAL_HASH_SHA1_Accmlt
                0x08043218                HASH_Accumulate_IT
                0x0804330c                HAL_HASH_MD5_Accmlt_IT
                0x08043316                HAL_HASH_SHA1_Accmlt_IT
                0x08043320                HASH_Start_IT
                0x08043470                HAL_HASH_MD5_Start_IT
                0x08043480                HAL_HASH_MD5_Accmlt_End_IT
                0x08043490                HAL_HASH_SHA1_Start_IT
                0x080434a0                HAL_HASH_SHA1_Accmlt_End_IT
                0x080434b0                HASH_Start_DMA
                0x080435a8                HAL_HASH_MD5_Start_DMA
                0x080435b2                HAL_HASH_SHA1_Start_DMA
                0x080435bc                HASH_Finish
                0x0804364c                HAL_HASH_MD5_Finish
                0x08043654                HAL_HASH_SHA1_Finish
                0x0804365c                HMAC_Start
                0x0804371c                HAL_HMAC_MD5_Start
                0x08043730                HAL_HMAC_SHA1_Start
                0x08043744                HMAC_Start_IT
                0x08043840                HAL_HMAC_MD5_Start_IT
                0x08043850                HAL_HMAC_SHA1_Start_IT
                0x08043860                HMAC_Start_DMA
                0x080439c8                HAL_HMAC_MD5_Start_DMA
                0x080439d2                HAL_HMAC_SHA1_Start_DMA
 .text          0x080439dc      0x2b0 ./build/stm32h7xx_ll_mdma.o
                0x080439dc                LL_MDMA_DeInit
                0x08043ae4                LL_MDMA_Init
                0x08043bb8                LL_MDMA_StructInit
                0x08043bfc                LL_MDMA_CreateLinkNode
                0x08043c80                LL_MDMA_ConnectLinkNode
                0x08043c84                LL_MDMA_DisconnectNextLinkNode
 .text          0x08043c8c      0x398 ./build/stm32h7xx_hal_cryp_ex.o
                0x08043c8c                HAL_CRYPEx_AESGCM_GenerateAuthTAG
                0x08043e3e                HAL_CRYPEx_AESCCM_GenerateAuthTAG
 .text          0x08044024     0x14c8 ./build/stm32h7xx_hal_sai.o
                0x080442e0                HAL_SAI_MspInit
                0x080442e2                HAL_SAI_Init
                0x080446b4                HAL_SAI_InitProtocol
                0x080446de                HAL_SAI_MspDeInit
                0x080446e0                HAL_SAI_DeInit
                0x0804476c                HAL_SAI_Transmit
                0x080448c0                HAL_SAI_Receive
                0x08044a0e                HAL_SAI_Transmit_IT
                0x08044ab8                HAL_SAI_Receive_IT
                0x08044b5c                HAL_SAI_DMAPause
                0x08044b82                HAL_SAI_DMAResume
                0x08044bba                HAL_SAI_DMAStop
                0x08044c70                HAL_SAI_Abort
                0x08044d3a                HAL_SAI_Transmit_DMA
                0x08044e3c                HAL_SAI_Receive_DMA
                0x08044f04                HAL_SAI_EnableTxMuteMode
                0x08044f28                HAL_SAI_DisableTxMuteMode
                0x08044f40                HAL_SAI_EnableRxMuteMode
                0x08044f76                HAL_SAI_DisableRxMuteMode
                0x08044f94                HAL_SAI_TxCpltCallback
                0x080450be                HAL_SAI_TxHalfCpltCallback
                0x080450ca                HAL_SAI_RxCpltCallback
                0x08045200                HAL_SAI_RxHalfCpltCallback
                0x0804520c                HAL_SAI_ErrorCallback
                0x0804524c                HAL_SAI_IRQHandler
                0x080454de                HAL_SAI_GetState
                0x080454e4                HAL_SAI_GetError
 .text          0x080454ec        0x0 ./build/stm32h7xx_hal_gfxmmu.o
 .text          0x080454ec      0x490 ./build/stm32h7xx_ll_utils.o
                0x08045534                LL_Init1msTick
                0x08045554                LL_mDelay
                0x0804557e                LL_SetSystemCoreClock
                0x08045588                LL_SetFlashLatency
                0x080457d4                LL_PLL_ConfigSystemClock_HSI
                0x080458a0                LL_PLL_ConfigSystemClock_HSE
 .text          0x0804597c      0x3ec ./build/stm32h7xx_hal_gpio.o
                0x0804597c                HAL_GPIO_Init
                0x08045b9c                HAL_GPIO_DeInit
                0x08045cec                HAL_GPIO_ReadPin
                0x08045cfa                HAL_GPIO_WritePin
                0x08045d06                HAL_GPIO_TogglePin
                0x08045d18                HAL_GPIO_LockPin
                0x08045d48                HAL_GPIO_EXTI_IRQHandler
 .text          0x08045d68     0x1a98 ./build/stm32h7xx_hal_jpeg.o
                0x0804665c                HAL_JPEG_MspInit
                0x0804665e                HAL_JPEG_Init
                0x08046700                HAL_JPEG_MspDeInit
                0x08046702                HAL_JPEG_DeInit
                0x0804672a                HAL_JPEG_ConfigEncoding
                0x08046924                HAL_JPEG_GetInfo
                0x080469f4                HAL_JPEG_EnableHeaderParsing
                0x08046a3a                HAL_JPEG_DisableHeaderParsing
                0x08046a80                HAL_JPEG_SetUserQuantTables
                0x08046adc                HAL_JPEG_Encode_IT
                0x08046b7a                HAL_JPEG_Decode_IT
                0x08046bec                HAL_JPEG_Encode_DMA
                0x08046c82                HAL_JPEG_Decode_DMA
                0x08046d06                HAL_JPEG_Pause
                0x08046d6a                HAL_JPEG_ConfigInputBuffer
                0x08046d70                HAL_JPEG_ConfigOutputBuffer
                0x08046d76                HAL_JPEG_Abort
                0x08046e54                HAL_JPEG_InfoReadyCallback
                0x08046e56                HAL_JPEG_EncodeCpltCallback
                0x08046e58                HAL_JPEG_DecodeCpltCallback
                0x08046e5a                HAL_JPEG_ErrorCallback
                0x08046e88                HAL_JPEG_GetDataCallback
                0x08047028                HAL_JPEG_DataReadyCallback
                0x08047266                HAL_JPEG_Encode
                0x0804734e                HAL_JPEG_Decode
                0x080474da                HAL_JPEG_Resume
                0x080477c8                HAL_JPEG_IRQHandler
                0x080477f6                HAL_JPEG_GetState
                0x080477fc                HAL_JPEG_GetError
 .text          0x08047800        0x0 ./build/stm32h7xx_hal_ospi.o
 .text          0x08047800       0x64 ./build/stm32h7xx_ll_opamp.o
                0x08047800                LL_OPAMP_DeInit
                0x08047808                LL_OPAMP_Init
                0x08047854                LL_OPAMP_StructInit
 .text          0x08047864     0x1bf4 ./build/stm32h7xx_hal_adc.o
                0x08047866                HAL_ADC_MspDeInit
                0x08047868                HAL_ADC_PollForConversion
                0x08047994                HAL_ADC_PollForEvent
                0x08047a7c                HAL_ADC_GetValue
                0x08047a82                HAL_ADC_ConvCpltCallback
                0x08047a84                HAL_ADC_ConvHalfCpltCallback
                0x08047a86                ADC_DMAHalfConvCplt
                0x08047a90                HAL_ADC_LevelOutOfWindowCallback
                0x08047a92                HAL_ADC_ErrorCallback
                0x08047a94                HAL_ADC_IRQHandler
                0x08047d6c                ADC_DMAConvCplt
                0x08047df4                ADC_DMAError
                0x08047e0e                HAL_ADC_ConfigChannel
                0x080482f4                HAL_ADC_AnalogWDGConfig
                0x08048748                HAL_ADC_GetState
                0x0804874c                HAL_ADC_GetError
                0x08048750                ADC_ConversionStop
                0x0804884c                ADC_Enable
                0x08048920                HAL_ADC_Start
                0x08048a30                HAL_ADC_Start_IT
                0x08048bd4                HAL_ADC_Start_DMA
                0x08048cf0                ADC_Disable
                0x08048d84                HAL_ADC_DeInit
                0x08048f7c                HAL_ADC_Stop
                0x08048fc0                HAL_ADC_Stop_IT
                0x0804900c                HAL_ADC_Stop_DMA
                0x08049090                ADC_ConfigureBoostMode
                0x080491f4                HAL_ADC_Init
 .text          0x08049458      0x1a8 ./build/stm32h7xx_hal_pcd_ex.o
                0x08049458                HAL_PCDEx_SetTxFiFo
                0x080494a4                HAL_PCDEx_SetRxFiFo
                0x080494ac                HAL_PCDEx_ActivateLPM
                0x080494d4                HAL_PCDEx_DeActivateLPM
                0x080494f4                HAL_PCDEx_ActivateBCD
                0x08049520                HAL_PCDEx_DeActivateBCD
                0x08049544                HAL_PCDEx_LPM_Callback
                0x08049546                HAL_PCDEx_BCD_Callback
                0x08049548                HAL_PCDEx_BCD_VBUSDetect
 .text          0x08049600       0xa8 ./build/stm32h7xx_ll_dac.o
                0x08049600                LL_DAC_DeInit
                0x08049630                LL_DAC_Init
                0x08049698                LL_DAC_StructInit
 .text          0x080496a8      0x250 ./build/stm32h7xx_hal_usart_ex.o
                0x080496e8                HAL_USARTEx_RxFifoFullCallback
                0x080496ea                HAL_USARTEx_TxFifoEmptyCallback
                0x080496ec                HAL_USARTEx_EnableSlaveMode
                0x08049750                HAL_USARTEx_DisableSlaveMode
                0x08049798                HAL_USARTEx_ConfigNSS
                0x080497e2                HAL_USARTEx_EnableFifoMode
                0x08049828                HAL_USARTEx_DisableFifoMode
                0x08049866                HAL_USARTEx_SetTxFifoThreshold
                0x080498ae                HAL_USARTEx_SetRxFifoThreshold
 .text          0x080498f8       0x9e ./build/stm32h7xx_hal_crc_ex.o
                0x080498f8                HAL_CRCEx_Polynomial_Set
                0x08049966                HAL_CRCEx_Input_Data_Reverse
                0x0804997e                HAL_CRCEx_Output_Data_Reverse
 *fill*         0x08049996        0x2 
 .text          0x08049998      0xca4 ./build/stm32h7xx_hal_rtc_ex.o
                0x08049998                HAL_RTCEx_SetTimeStamp
                0x080499ec                HAL_RTCEx_SetTimeStamp_IT
                0x08049a66                HAL_RTCEx_DeactivateTimeStamp
                0x08049abc                HAL_RTCEx_SetInternalTimeStamp
                0x08049afe                HAL_RTCEx_DeactivateInternalTimeStamp
                0x08049b40                HAL_RTCEx_GetTimeStamp
                0x08049bd8                HAL_RTCEx_SetTamper
                0x08049cc4                HAL_RTCEx_SetTamper_IT
                0x08049dd0                HAL_RTCEx_DeactivateTamper
                0x08049e44                HAL_RTCEx_TimeStampEventCallback
                0x08049e46                HAL_RTCEx_Tamper1EventCallback
                0x08049e48                HAL_RTCEx_Tamper2EventCallback
                0x08049e4a                HAL_RTCEx_Tamper3EventCallback
                0x08049e4c                HAL_RTCEx_TamperTimeStampIRQHandler
                0x08049f0c                HAL_RTCEx_InternalTamper1EventCallback
                0x08049f0e                HAL_RTCEx_InternalTamper2EventCallback
                0x08049f10                HAL_RTCEx_InternalTamper3EventCallback
                0x08049f12                HAL_RTCEx_InternalTamper4EventCallback
                0x08049f14                HAL_RTCEx_InternalTamper5EventCallback
                0x08049f16                HAL_RTCEx_InternalTamper6EventCallback
                0x08049f18                HAL_RTCEx_InternalTamper8EventCallback
                0x08049f1a                HAL_RTCEx_PollForTimeStampEvent
                0x08049f72                HAL_RTCEx_PollForTamper1Event
                0x08049fb8                HAL_RTCEx_PollForTamper2Event
                0x08049ffe                HAL_RTCEx_PollForTamper3Event
                0x0804a050                HAL_RTCEx_SetWakeUpTimer
                0x0804a0f0                HAL_RTCEx_SetWakeUpTimer_IT
                0x0804a1b4                HAL_RTCEx_DeactivateWakeUpTimer
                0x0804a232                HAL_RTCEx_GetWakeUpTimer
                0x0804a23a                HAL_RTCEx_WakeUpTimerEventCallback
                0x0804a23c                HAL_RTCEx_WakeUpTimerIRQHandler
                0x0804a26e                HAL_RTCEx_PollForWakeUpTimerEvent
                0x0804a2b4                HAL_RTCEx_BKUPWrite
                0x0804a2be                HAL_RTCEx_BKUPRead
                0x0804a2c8                HAL_RTCEx_SetSmoothCalib
                0x0804a360                HAL_RTCEx_SetSynchroShift
                0x0804a420                HAL_RTCEx_SetCalibrationOutPut
                0x0804a47a                HAL_RTCEx_DeactivateCalibrationOutPut
                0x0804a4bc                HAL_RTCEx_SetRefClock
                0x0804a516                HAL_RTCEx_DeactivateRefClock
                0x0804a570                HAL_RTCEx_EnableBypassShadow
                0x0804a5b2                HAL_RTCEx_DisableBypassShadow
                0x0804a5f4                HAL_RTCEx_AlarmBEventCallback
                0x0804a5f6                HAL_RTCEx_PollForAlarmBEvent
 .text          0x0804a63c        0x0 ./build/stm32h7xx_hal_otfdec.o
 .text          0x0804a63c        0x4 ./build/main.o
                0x0804a63c                main
 .text          0x0804a640       0x18 ./build/stm32h7xx_it.o
                0x0804a640                NMI_Handler
                0x0804a644                MemManage_Handler
                0x0804a646                BusFault_Handler
                0x0804a648                UsageFault_Handler
                0x0804a64a                SVC_Handler
                0x0804a64c                DebugMon_Handler
 .text          0x0804a658      0x610 ./build/stm32h7xx_hal_msp.o
                0x0804a658                HAL_UART_MspInit
                0x0804a890                HAL_I2C_MspInit
                0x0804a958                HAL_SPI_MspInit
                0x0804aa10                HAL_ADC_MspInit
                0x0804aad0                HAL_SD_MspInit
                0x0804ab7c                HAL_FDCAN_MspInit
                0x0804abf0                HAL_PCD_MspInit
 .text          0x0804ac68       0xcc ./build/bmi088_sample.o
                0x0804ac68                imu_thread_entry
 *fill*         0x0804ad34        0x4 
 .text          0x0804ad38      0x3a4 ./build/sensor_intf_bmi088.o
                0x0804af84                rt_hw_bmi088_init
 .text          0x0804b0dc      0x72c ./build/bmi088.o
                0x0804b2e0                bmi088_get_accel
                0x0804b35c                bmi088_get_gyro
                0x0804b3c8                bmi088a_set_power_mode
                0x0804b47c                bmi088g_set_power_mode
                0x0804b508                bmi088a_set_meas_conf
                0x0804b5c0                bmi088g_set_meas_conf
                0x0804b64c                bmi088_init
                0x0804b7e4                bmi088_deinit
 .text          0x0804b808      0x184 ./build/board.o
                0x0804b808                SystemClock_Config
                0x0804b914                rt_hw_console_output
                0x0804b964                rt_hw_console_getchar
 .text          0x0804b98c      0x1d4 ./build/sensor_intf_hmc5883l.o
                0x0804b9da                rt_hw_hmc5883l_init
                0x0804bad4                rt_hw_hmc5883l_port
                0x0804bb5c                rt_hmc5883l_init
 .text          0x0804bb60      0x140 ./build/hmc5883l.o
                0x0804bbda                hmc5883l_get_raw_data
                0x0804bbdc                hmc5883l_get_mag
                0x0804bc34                hmc5883l_mag_get_id
 .text          0x0804bca0      0x224 ./build/sensor_intf_mmc5983ma.o
                0x0804bce6                rt_hw_mmc5983ma_init
                0x0804be24                rt_hw_mmc5983ma_port
 .text          0x0804bec4       0x34 ./build/mmc5983ma.o
                0x0804bec4                mmc5893ma_mag_get_id
 .text          0x0804bef8        0x0 ./build/fport.o
 .text          0x0804bef8       0x5c ./build/spl06_001.o
                0x0804befc                _spl06_001_get_id
                0x0804befe                rt_hw_spl06_001_init
 .text          0x0804bf54      0x514 ./build/dfs.o
                0x0804bf54                dfs_init
                0x0804c01c                dfs_lock
                0x0804c050                dfs_unlock
                0x0804c060                dfs_subdir
                0x0804c088                dfs_normalize_path
                0x0804c1c8                dfs_fdtable_get
                0x0804c1d0                fd_new
                0x0804c228                fd_get
                0x0804c270                fd_put
                0x0804c2c4                fd_is_open
                0x0804c36a                list_fd
 .text          0x0804c468      0x304 ./build/select.o
                0x0804c486                select
 .text          0x0804c76c      0x888 ./build/dfs_file.o
                0x0804c780                dfs_file_open
                0x0804c84c                dfs_file_close
                0x0804c876                dfs_file_ioctl
                0x0804c8cc                dfs_file_read
                0x0804c8f6                dfs_file_getdents
                0x0804c920                dfs_file_unlink
                0x0804c9ac                dfs_file_write
                0x0804ca80                dfs_file_flush
                0x0804ca9a                dfs_file_lseek
                0x0804cabc                dfs_file_stat
                0x0804cc98                dfs_file_rename
                0x0804cd32                dfs_file_ftruncate
                0x0804cd78                ls
                0x0804ce74                rm
                0x0804ce90                cat
                0x0804ceec                copy
 .text          0x0804cff4      0x1e8 ./build/poll.o
                0x0804d1b0                poll
 .text          0x0804d1dc      0x5a0 ./build/dfs_posix.o
                0x0804d1dc                open
                0x0804d234                close
                0x0804d272                read
                0x0804d2b6                write
                0x0804d2fa                lseek
                0x0804d37c                rename
                0x0804d394                unlink
                0x0804d3ac                stat
                0x0804d3c2                fstat
                0x0804d410                fsync
                0x0804d438                fcntl
                0x0804d47e                ioctl
                0x0804d4a0                ftruncate
                0x0804d4f6                statfs
                0x0804d50c                mkdir
                0x0804d56c                rmdir
                0x0804d584                opendir
                0x0804d5fa                readdir
                0x0804d66c                telldir
                0x0804d69a                seekdir
                0x0804d6d0                rewinddir
                0x0804d704                closedir
                0x0804d74c                access
                0x0804d768                getcwd
 .text          0x0804d77c      0x658 ./build/dfs_fs.o
                0x0804d77c                dfs_register
                0x0804d800                dfs_filesystem_lookup
                0x0804d890                dfs_filesystem_get_mounted_path
                0x0804d8c8                dfs_filesystem_get_partition
                0x0804d9ac                dfs_mount
                0x0804db68                dfs_unmount
                0x0804dbf8                dfs_mkfs
                0x0804dcbc                dfs_statfs
                0x0804dcde                mkfs
                0x0804dce6                df
 .text          0x0804ddd4      0x368 ./build/audio_pipe.o
                0x0804e050                rt_audio_pipe_init
                0x0804e0d4                rt_audio_pipe_detach
                0x0804e0dc                rt_audio_pipe_create
                0x0804e122                rt_audio_pipe_destroy
 .text          0x0804e13c      0x7c0 ./build/audio.o
                0x0804e7a0                rt_audio_register
                0x0804e818                rt_audio_samplerate_to_speed
                0x0804e8d4                rt_audio_tx_complete
                0x0804e8dc                rt_audio_rx_done
 .text          0x0804e8fc      0xb3c ./build/can.o
                0x0804f0e8                cmd_canstat
                0x0804f1e8                rt_hw_can_register
                0x0804f2ac                rt_hw_can_isr
 .text          0x0804f438      0x15c ./build/i2c_dev.o
                0x0804f544                rt_i2c_bus_device_device_init
 .text          0x0804f594      0x50c ./build/i2c-bit-ops.o
                0x0804fa8e                rt_i2c_bit_add_bus
 .text          0x0804faa0      0x184 ./build/i2c_core.o
                0x0804faa0                rt_i2c_core_init
                0x0804faa4                rt_i2c_bus_device_register
                0x0804faf0                rt_i2c_bus_device_find
                0x0804fb28                rt_i2c_transfer
                0x0804fb80                rt_i2c_control
                0x0804fbb0                rt_i2c_master_send
                0x0804fbd6                rt_i2c_master_recv
 .text          0x0804fc24      0x1c8 ./build/completion.o
                0x0804fc24                rt_completion_init
                0x0804fc54                rt_completion_wait
                0x0804fd9c                rt_completion_done
 .text          0x0804fdec      0x1d4 ./build/waitqueue.o
                0x0804fdec                __wqueue_default_wake
                0x0804fdf0                rt_wqueue_add
                0x0804fe10                rt_wqueue_remove
                0x0804fe2e                rt_wqueue_wakeup
                0x0804fe88                rt_wqueue_wait
 .text          0x0804ffc0      0x244 ./build/pipe.o
                0x080500dc                rt_pipe_create
                0x080501b8                rt_pipe_delete
 .text          0x08050204      0x5a4 ./build/ringbuffer.o
                0x08050204                rt_ringbuffer_init
                0x08050260                rt_ringbuffer_putchar_force
                0x08050314                rt_ringbuffer_data_len
                0x08050350                rt_ringbuffer_put
                0x08050408                rt_ringbuffer_put_force
                0x080504f8                rt_ringbuffer_get
                0x0805059c                rt_ringbuffer_peak
                0x0805060c                rt_ringbuffer_putchar
                0x08050680                rt_ringbuffer_getchar
                0x080506ec                rt_ringbuffer_reset
                0x0805072c                rt_ringbuffer_create
                0x0805077c                rt_ringbuffer_destroy
 .text          0x080507a8      0x684 ./build/dataqueue.o
                0x080507a8                rt_data_queue_init
                0x0805082c                rt_data_queue_push
                0x08050a04                rt_data_queue_peak
                0x08050a7c                rt_data_queue_reset
                0x08050b38                rt_data_queue_deinit
                0x08050b90                rt_data_queue_len
                0x08050c04                rt_data_queue_pop
 .text          0x08050e2c      0x538 ./build/workqueue.o
                0x0805108c                rt_work_init
                0x080510d0                rt_workqueue_create
                0x08051134                rt_workqueue_dowork
                0x08051174                rt_workqueue_submit_work
                0x080511d0                rt_workqueue_urgent_work
                0x08051250                rt_workqueue_cancel_work
                0x0805128c                rt_workqueue_cancel_work_sync
                0x080512e0                rt_workqueue_cancel_all_work
                0x08051328                rt_workqueue_destroy
 .text          0x08051364      0x5c0 ./build/ringblk_buf.o
                0x080513b8                rt_rbb_init
                0x0805143c                rt_rbb_create
                0x08051498                rt_rbb_destroy
                0x080514c8                rt_rbb_blk_alloc
                0x080515f0                rt_rbb_blk_put
                0x0805162c                rt_rbb_blk_get
                0x08051674                rt_rbb_blk_size
                0x08051698                rt_rbb_blk_buf
                0x080516b8                rt_rbb_blk_free
                0x0805173c                rt_rbb_blk_queue_get
                0x080517ec                rt_rbb_blk_queue_len
                0x08051824                rt_rbb_blk_queue_buf
                0x08051848                rt_rbb_blk_queue_free
                0x08051898                rt_rbb_next_blk_queue_len
                0x08051904                rt_rbb_get_buf_size
 .text          0x08051924      0x2e8 ./build/adc.o
                0x0805197e                rt_hw_adc_register
                0x080519d4                rt_adc_read
                0x08051a04                rt_adc_enable
                0x08051a38                rt_adc_disable
 .text          0x08051c0c      0x2ac ./build/pin.o
                0x08051cc8                rt_device_pin_register
                0x08051d0c                rt_pin_attach_irq
                0x08051d60                rt_pin_detach_irq
                0x08051d98                rt_pin_irq_enable
                0x08051dd4                rt_pin_mode
                0x08051e08                rt_pin_write
                0x08051e3c                rt_pin_read
                0x08051e6c                rt_pin_get
 .text          0x08051eb8      0x83c ./build/sd.o
                0x08052278                mmcsd_send_app_cmd
                0x080522f8                mmcsd_app_set_bus_width
                0x08052338                mmcsd_send_app_op_cond
                0x080523b6                mmcsd_send_if_cond
                0x08052408                mmcsd_get_card_addr
                0x0805243a                mmcsd_get_scr
                0x08052648                init_sd
 .text          0x080526f4     0x1340 ./build/sdio.o
                0x08052984                sdio_io_send_op_cond
                0x08052a10                sdio_io_rw_direct
                0x08052b20                sdio_io_rw_extended
                0x08052cc8                sdio_io_rw_extended_block
                0x08052db6                sdio_io_readb
                0x08053168                sdio_io_writeb
                0x08053240                sdio_io_readw
                0x0805326c                sdio_io_writew
                0x08053288                sdio_io_readl
                0x080532b2                sdio_io_writel
                0x080532ce                sdio_io_read_multi_fifo_b
                0x080532e6                sdio_io_write_multi_fifo_b
                0x080532fe                sdio_io_read_multi_incr_b
                0x08053316                sdio_io_write_multi_incr_b
                0x0805332e                sdio_free_cis
                0x080535e8                init_sdio
                0x08053698                sdio_attach_irq
                0x08053724                sdio_detach_irq
                0x0805379c                sdio_irq_wakeup
                0x080537bc                sdio_enable_func
                0x0805386c                sdio_disable_func
                0x080538dc                sdio_set_drvdata
                0x080538e0                sdio_get_drvdata
                0x080538e4                sdio_set_block_size
                0x0805393c                sdio_register_driver
                0x080539a8                sdio_unregister_driver
                0x08053a30                rt_sdio_init
 .text          0x08053a34      0x858 ./build/mmc.o
                0x08054024                mmc_send_op_cond
                0x08054200                init_mmc
 .text          0x0805428c      0x8dc ./build/mmcsd_core.o
                0x0805434c                rt_mmcsd_core_init
                0x080543f0                mmcsd_host_lock
                0x080543fe                mmcsd_host_unlock
                0x08054408                mmcsd_req_complete
                0x08054412                mmcsd_send_request
                0x08054476                mmcsd_send_cmd
                0x080544e4                mmcsd_spi_read_ocr
                0x08054520                mmcsd_all_get_cid
                0x0805455e                mmcsd_get_cid
                0x0805465c                mmcsd_get_csd
                0x08054750                mmcsd_select_card
                0x0805475c                mmcsd_deselect_cards
                0x08054768                mmcsd_spi_use_crc
                0x08054796                mmcsd_set_chip_select
                0x080547a6                mmcsd_go_idle
                0x08054804                mmcsd_detect
                0x0805491c                mmcsd_set_clock
                0x08054958                mmcsd_set_bus_mode
                0x08054968                mmcsd_set_bus_width
                0x08054978                mmcsd_set_data_timeout
                0x08054a50                mmcsd_select_voltage
                0x08054aa0                mmcsd_wait_cd_changed
                0x08054acc                mmcsd_change
                0x08054adc                mmcsd_alloc_host
                0x08054b4c                mmcsd_free_host
 .text          0x08054b68      0x65c ./build/block_dev.o
                0x08054e88                mmcsd_num_wr_blocks
                0x08054f84                rt_mmcsd_blk_probe
                0x08055164                rt_mmcsd_blk_remove
                0x080551c0                rt_mmcsd_blk_init
 .text          0x080551c4      0xb34 ./build/sensor_cmd.o
 .text          0x08055cf8      0x5dc ./build/sensor.o
                0x080560e8                rt_sensor_cb
                0x08056166                rt_hw_sensor_register
 .text          0x080562d4      0xb3c ./build/serial_v2.o
                0x080562d4                _serial_poll_rx
                0x08056330                _serial_poll_tx
                0x08056c68                rt_hw_serial_register
                0x08056cc4                rt_hw_serial_isr
 .text          0x08056e10      0x5a8 ./build/spi_core.o
                0x08056e10                rt_spi_bus_register
                0x08056e3e                rt_spi_bus_attach_device
                0x08056e82                rt_spi_configure
                0x08056ee0                rt_spi_send_then_send
                0x08056fd0                rt_spi_send_then_recv
                0x080570c0                rt_spi_transfer
                0x08057190                rt_spi_transfer_message
                0x0805721c                rt_spi_take_bus
                0x080572a8                rt_spi_release_bus
                0x08057300                rt_spi_take
                0x0805735c                rt_spi_release
 .text          0x080573b8     0x104c ./build/spi_msd.o
                0x0805839c                msd_init
 .text          0x08058404      0x1a0 ./build/spi_dev.o
                0x0805850c                rt_spi_bus_device_init
                0x08058558                rt_spidev_device_init
 .text          0x080585a4      0x40c ./build/winusb.o
                0x08058818                rt_usbd_function_winusb_create
                0x0805899e                rt_usbd_winusb_class_register
 .text          0x080589b0      0x42c ./build/audio_mic.o
                0x080589c6                mic_entry
                0x08058b0c                rt_usbd_function_uac_mic_create
                0x08058d88                audio_mic_init
                0x08058dcc                rt_usbd_uac_mic_class_register
 .text          0x08058ddc        0x0 ./build/cdc_vcom.o
 .text          0x08058ddc        0x0 ./build/hid.o
 .text          0x08058ddc        0x0 ./build/mstorage.o
 .text          0x08058ddc      0x42c ./build/audio_speaker.o
                0x08058df2                speaker_entry
                0x08058f38                rt_usbd_function_uac_speaker_create
                0x080591b4                audio_speaker_init
                0x080591f8                rt_usbd_uac_speaker_class_register
 .text          0x08059208        0x0 ./build/ecm.o
 .text          0x08059208        0x0 ./build/rndis.o
 .text          0x08059208     0x2610 ./build/usbdevice_core.o
                0x08059678                rt_usbd_device_new
                0x080596b8                rt_usbd_device_set_string
                0x080596f0                rt_usbd_device_set_interface_string
                0x08059744                rt_usbd_device_set_os_comp_id_desc
                0x08059784                rt_usbd_device_set_qualifier
                0x080597bc                rt_usbd_device_set_controller
                0x080597f8                rt_usbd_device_set_descriptor
                0x0805983c                rt_usbd_config_new
                0x08059884                rt_usbd_interface_new
                0x080598d8                rt_usbd_altsetting_new
                0x0805993c                rt_usbd_altsetting_config_descriptor
                0x08059988                rt_usbd_function_new
                0x080599e8                rt_usbd_endpoint_new
                0x08059a34                rt_usbd_find_device
                0x08059a7c                rt_usbd_find_config
                0x08059ad8                rt_usbd_find_interface
                0x08059ba4                rt_usbd_find_altsetting
                0x08059bf4                rt_usbd_find_endpoint
                0x08059e90                rt_usbd_device_add_config
                0x08059f64                rt_usbd_config_add_function
                0x08059fb0                rt_usbd_function_add_interface
                0x08059ff8                rt_usbd_interface_add_altsetting
                0x0805a044                rt_usbd_altsetting_add_endpoint
                0x0805a08c                rt_usbd_os_comp_id_desc_add_os_func_comp_id_desc
                0x0805a0d8                rt_usbd_set_altsetting
                0x0805a104                rt_usbd_set_config
                0x0805a19c                rt_usbd_io_request
                0x0805a224                rt_usbd_set_feature
                0x0805a2a4                rt_usbd_clear_feature
                0x0805a324                rt_usbd_ep0_set_stall
                0x0805a764                rt_usbd_ep0_clear_stall
                0x0805a7d4                rt_usbd_ep_set_stall
                0x0805a87c                rt_usbd_ep_clear_stall
                0x0805a920                rt_usbd_ep_unassign
                0x0805a9a4                rt_usbd_ep0_in_handler
                0x0805aacc                rt_usbd_ep0_write
                0x0805b344                rt_usbd_ep0_read
                0x0805b57c                rt_usbd_event_signal
                0x0805b5a8                rt_usbd_ep0_setup_handler
                0x0805b638                rt_usbd_ep0_out_handler
                0x0805b670                rt_usbd_ep_in_handler
                0x0805b6ac                rt_usbd_ep_out_handler
                0x0805b6e8                rt_usbd_reset_handler
                0x0805b71c                rt_usbd_connect_handler
                0x0805b750                rt_usbd_disconnect_handler
                0x0805b784                rt_usbd_sof_handler
                0x0805b7b8                rt_usbd_core_init
 .text          0x0805b818       0xec ./build/usbdevice.o
                0x0805b818                rt_usbd_class_list_init
                0x0805b828                rt_usbd_class_register
                0x0805b840                rt_usb_device_init
 .text          0x0805b904      0x984 ./build/cmd.o
                0x0805b948                version
                0x0805b9d8                list_thread
                0x0805bb24                list_sem
                0x0805bc24                list_event
                0x0805bd14                list_mutex
                0x0805bdd0                list_mailbox
                0x0805bed8                list_msgqueue
                0x0805bfd8                list_mempool
                0x0805c0d4                list_device
                0x0805c190                list_timer
 .text          0x0805c288      0x318 ./build/msh.o
                0x0805c2ae                msh_help
                0x0805c3b0                cmd_ps
                0x0805c3ba                cmd_free
                0x0805c4c4                msh_exec
                0x0805c518                msh_auto_complete
 .text          0x0805c5a0      0x7f8 ./build/shell.o
                0x0805c69a                finsh_set_prompt
                0x0805c6d0                finsh_get_prompt
                0x0805c77c                finsh_get_prompt_mode
                0x0805c7ac                finsh_set_prompt_mode
                0x0805c7e0                finsh_getchar
                0x0805c858                finsh_set_device
                0x0805c8f4                finsh_thread_entry
                0x0805cc70                finsh_get_device
                0x0805cc9c                finsh_set_echo
                0x0805ccd4                finsh_get_echo
                0x0805cd04                finsh_system_function_init
                0x0805cd14                finsh_system_init
 .text          0x0805cd98        0x0 ./build/msh_file.o
 .text          0x0805cd98      0x454 ./build/cpuport.o
                0x0805d02c                rt_hw_stack_init
                0x0805d07c                rt_hw_exception_install
                0x0805d088                rt_hw_hard_fault_exception
                0x0805d1a4                rt_hw_cpu_shutdown
                0x0805d1c8                rt_hw_cpu_reset
                0x0805d1d8                __rt_ffs
 .text          0x0805d1ec       0xcc ./build/components.o
                0x0805d1fc                rt_components_board_init
                0x0805d218                rt_components_init
                0x0805d234                main_thread_entry
                0x0805d240                rt_application_init
                0x0805d284                rtthread_startup
                0x0805d2ae                entry
 .text          0x0805d2b8      0x5ac ./build/timer.o
                0x0805d310                rt_timer_enter_sethook
                0x0805d31c                rt_timer_exit_sethook
                0x0805d328                rt_timer_init
                0x0805d3a4                rt_timer_detach
                0x0805d430                rt_timer_create
                0x0805d490                rt_timer_delete
                0x0805d51c                rt_timer_start
                0x0805d61c                rt_timer_stop
                0x0805d6a4                rt_timer_control
                0x0805d750                rt_timer_check
                0x0805d824                rt_timer_next_timeout_tick
                0x0805d844                rt_system_timer_init
                0x0805d860                rt_system_timer_thread_init
 .text          0x0805d864      0x748 ./build/thread.o
                0x0805d988                rt_thread_suspend_sethook
                0x0805d994                rt_thread_resume_sethook
                0x0805d9a0                rt_thread_inited_sethook
                0x0805d9ac                rt_thread_init
                0x0805da1c                rt_thread_self
                0x0805da5c                rt_thread_detach
                0x0805dae8                rt_thread_create
                0x0805db38                rt_thread_delete
                0x0805dbc4                rt_thread_yield
                0x0805dbf0                rt_thread_suspend
                0x0805dc98                rt_thread_sleep
                0x0805dd18                rt_thread_delay
                0x0805dd20                rt_thread_mdelay
                0x0805dd2c                rt_thread_delay_until
                0x0805dde0                rt_thread_resume
                0x0805de6c                rt_thread_startup
                0x0805dee4                rt_thread_control
                0x0805dfa0                rt_thread_find
 .text          0x0805dfac        0x0 ./build/slab.o
 .text          0x0805dfac        0x0 ./build/memheap.o
 .text          0x0805dfac      0x394 ./build/object.o
                0x0805dfac                rt_object_attach_sethook
                0x0805dfb8                rt_object_detach_sethook
                0x0805dfc4                rt_object_trytake_sethook
                0x0805dfd0                rt_object_take_sethook
                0x0805dfdc                rt_object_put_sethook
                0x0805dfe8                rt_object_get_information
                0x0805e00c                rt_object_get_length
                0x0805e036                rt_object_get_pointers
                0x0805e078                rt_object_init
                0x0805e110                rt_object_detach
                0x0805e15c                rt_object_allocate
                0x0805e204                rt_object_delete
                0x0805e270                rt_object_is_systemobject
                0x0805e29c                rt_object_get_type
                0x0805e2c0                rt_object_find
 .text          0x0805e340        0x0 ./build/signal.o
 .text          0x0805e340        0x0 ./build/cpu.o
 .text          0x0805e340      0x440 ./build/device.o
                0x0805e340                rt_device_unregister
                0x0805e398                rt_device_find
                0x0805e3a2                rt_device_register
                0x0805e3d6                rt_device_create
                0x0805e3fa                rt_device_destroy
                0x0805e454                rt_device_init
                0x0805e494                rt_device_open
                0x0805e550                rt_device_close
                0x0805e5c0                rt_device_read
                0x0805e638                rt_device_write
                0x0805e6b0                rt_device_control
                0x0805e700                rt_device_set_rx_indicate
                0x0805e740                rt_device_set_tx_complete
 .text          0x0805e780     0x23b8 ./build/ipc.o
                0x0805e780                rt_sem_init
                0x0805e7ec                rt_sem_detach
                0x0805e870                rt_sem_create
                0x0805e900                rt_sem_delete
                0x0805e9b4                rt_sem_take
                0x0805eb84                rt_sem_trytake
                0x0805eb8e                rt_sem_release
                0x0805ec20                rt_sem_control
                0x0805eca8                rt_mutex_init
                0x0805ecf0                rt_mutex_detach
                0x0805ed74                rt_mutex_create
                0x0805eddc                rt_mutex_delete
                0x0805ee90                rt_mutex_take
                0x0805f0d0                rt_mutex_trytake
                0x0805f0da                rt_mutex_release
                0x0805f248                rt_mutex_control
                0x0805f288                rt_event_init
                0x0805f2d8                rt_event_detach
                0x0805f35c                rt_event_create
                0x0805f3cc                rt_event_delete
                0x0805f480                rt_event_send
                0x0805f564                rt_event_recv
                0x0805f794                rt_event_control
                0x0805f818                rt_mb_init
                0x0805f888                rt_mb_detach
                0x0805f930                rt_mb_create
                0x0805f9d0                rt_mb_delete
                0x0805fab0                rt_mb_send_wait
                0x0805fd18                rt_mb_send
                0x0805fd22                rt_mb_urgent
                0x0805fdc8                rt_mb_recv
                0x08060040                rt_mb_control
                0x080600ec                rt_mq_init
                0x08060190                rt_mq_detach
                0x08060238                rt_mq_create
                0x0806030c                rt_mq_delete
                0x080603ec                rt_mq_send_wait
                0x080606a4                rt_mq_send
                0x080606ae                rt_mq_urgent
                0x080607b8                rt_mq_recv
                0x08060a74                rt_mq_control
 .text          0x08060b38      0xb30 ./build/kservice.o
                0x08060ca8                rt_get_errno
                0x08060ccc                rt_set_errno
                0x08060cf0                _rt_errno
                0x08060d10                rt_memset
                0x08060d74                rt_memcpy
                0x08060de8                rt_memmove
                0x08060e26                rt_memcmp
                0x08060e42                rt_strcasecmp
                0x08060e84                rt_strncpy
                0x08060eb0                rt_strcpy
                0x08060ec4                rt_strncmp
                0x08060eea                rt_strcmp
                0x08060f00                rt_strlen
                0x08060f10                rt_strstr
                0x08060f48                rt_strnlen
                0x08060f5c                rt_vsnprintf
                0x08061270                rt_snprintf
                0x0806128c                rt_vsprintf
                0x0806129c                rt_sprintf
                0x080612b8                rt_console_get_device
                0x080612c4                rt_console_set_device
                0x080612fa                rt_kputs
                0x08061324                rt_kprintf
                0x08061370                rt_show_version
                0x080613b8                rt_malloc_sethook
                0x080613c4                rt_free_sethook
                0x080613d0                rt_assert_set_hook
                0x080613dc                rt_assert_handler
                0x08061414                rt_system_heap_init
                0x08061464                rt_memory_info
                0x080614d4                rt_realloc
                0x08061530                rt_free
                0x08061588                rt_free_align
                0x08061594                rt_malloc
                0x080615fc                rt_strdup
                0x0806161c                rt_calloc
                0x08061638                rt_malloc_align
 .text          0x08061668       0xc4 ./build/clock.o
                0x08061668                rt_tick_sethook
                0x08061674                rt_tick_get
                0x08061680                rt_tick_set
                0x08061698                rt_tick_increase
                0x080616e8                rt_tick_from_millisecond
                0x08061724                rt_tick_get_millisecond
 .text          0x0806172c      0x33c ./build/scheduler.o
                0x080617a8                rt_scheduler_sethook
                0x080617b4                rt_scheduler_switch_sethook
                0x080617c0                rt_system_scheduler_init
                0x080617ec                rt_schedule_insert_thread
                0x0806186c                rt_schedule_remove_thread
                0x080618cc                rt_system_scheduler_start
                0x080618f8                rt_schedule
                0x08061a04                rt_enter_critical
                0x08061a20                rt_exit_critical
                0x08061a5c                rt_critical_level
 .text          0x08061a68       0x7c ./build/irq.o
                0x08061a68                rt_interrupt_enter_sethook
                0x08061a74                rt_interrupt_leave_sethook
                0x08061a80                rt_interrupt_enter
                0x08061aa4                rt_interrupt_leave
                0x08061acc                rt_interrupt_get_nest
 .text          0x08061ae4      0x46c ./build/mempool.o
                0x08061ae4                rt_mp_alloc_sethook
                0x08061af0                rt_mp_free_sethook
                0x08061afc                rt_mp_init
                0x08061bb4                rt_mp_detach
                0x08061c30                rt_mp_create
                0x08061d04                rt_mp_delete
                0x08061dbc                rt_mp_alloc
                0x08061ef4                rt_mp_free
 .text          0x08061f50      0x170 ./build/idle.o
                0x08061f50                rt_thread_idle_sethook
                0x08061f84                rt_thread_idle_delhook
                0x08061fbc                rt_thread_defunct_enqueue
                0x08061fd4                rt_thread_defunct_dequeue
                0x0806205c                rt_thread_idle_init
                0x080620b8                rt_thread_idle_gethandler
 .text          0x080620c0      0x558 ./build/mem.o
                0x0806215c                rt_smem_init
                0x080621e8                rt_smem_detach
                0x08062240                rt_smem_alloc
                0x080623c0                rt_smem_free
                0x080624bc                rt_smem_realloc
 .text          0x08062618       0x14 ./build/startup_stm32h750xx.o
 .text          0x0806262c      0x138 ./build/context_gcc.o
                0x0806262c                rt_hw_interrupt_disable
                0x08062634                rt_hw_interrupt_enable
                0x0806263a                rt_hw_context_switch
                0x0806263a                rt_hw_context_switch_interrupt
                0x0806265a                PendSV_Handler
                0x080626c6                rt_hw_context_switch_to
                0x0806270e                rt_hw_interrupt_thread_switch
                0x08062712                HardFault_Handler
 .text          0x08062764       0x30 d:/software/work/gcc-arm-none-eabi-10.3-2021.07/bin/../lib/gcc/arm-none-eabi/10.3.1/thumb/v7e-m+dp/hard\libgcc.a(_aeabi_uldivmod.o)
                0x08062764                __aeabi_uldivmod
 .text          0x08062794      0x2d0 d:/software/work/gcc-arm-none-eabi-10.3-2021.07/bin/../lib/gcc/arm-none-eabi/10.3.1/thumb/v7e-m+dp/hard\libgcc.a(_udivmoddi4.o)
                0x08062794                __udivmoddi4
 .text          0x08062a64        0x4 d:/software/work/gcc-arm-none-eabi-10.3-2021.07/bin/../lib/gcc/arm-none-eabi/10.3.1/thumb/v7e-m+dp/hard\libgcc.a(_dvmd_tls.o)
                0x08062a64                __aeabi_idiv0
                0x08062a64                __aeabi_ldiv0
 .text          0x08062a68        0x0 d:/software/work/gcc-arm-none-eabi-10.3-2021.07/bin/../lib/gcc/arm-none-eabi/10.3.1/../../../../arm-none-eabi/lib/thumb/v7e-m+dp/hard\libc.a(lib_a-atoi.o)
 .text          0x08062a68        0x0 d:/software/work/gcc-arm-none-eabi-10.3-2021.07/bin/../lib/gcc/arm-none-eabi/10.3.1/../../../../arm-none-eabi/lib/thumb/v7e-m+dp/hard\libc.a(lib_a-exit.o)
 .text          0x08062a68        0x0 d:/software/work/gcc-arm-none-eabi-10.3-2021.07/bin/../lib/gcc/arm-none-eabi/10.3.1/../../../../arm-none-eabi/lib/thumb/v7e-m+dp/hard\libc.a(lib_a-impure.o)
 .text          0x08062a68        0x0 d:/software/work/gcc-arm-none-eabi-10.3-2021.07/bin/../lib/gcc/arm-none-eabi/10.3.1/../../../../arm-none-eabi/lib/thumb/v7e-m+dp/hard\libc.a(lib_a-init.o)
 .text          0x08062a68        0x0 d:/software/work/gcc-arm-none-eabi-10.3-2021.07/bin/../lib/gcc/arm-none-eabi/10.3.1/../../../../arm-none-eabi/lib/thumb/v7e-m+dp/hard\libc.a(lib_a-memcmp.o)
 .text          0x08062a68      0x134 d:/software/work/gcc-arm-none-eabi-10.3-2021.07/bin/../lib/gcc/arm-none-eabi/10.3.1/../../../../arm-none-eabi/lib/thumb/v7e-m+dp/hard\libc.a(lib_a-memcpy.o)
                0x08062a68                memcpy
 .text          0x08062b9c        0x0 d:/software/work/gcc-arm-none-eabi-10.3-2021.07/bin/../lib/gcc/arm-none-eabi/10.3.1/../../../../arm-none-eabi/lib/thumb/v7e-m+dp/hard\libc.a(lib_a-memset.o)
 .text          0x08062b9c        0x0 d:/software/work/gcc-arm-none-eabi-10.3-2021.07/bin/../lib/gcc/arm-none-eabi/10.3.1/../../../../arm-none-eabi/lib/thumb/v7e-m+dp/hard\libc.a(lib_a-strcat.o)
 *fill*         0x08062b9c        0x4 
 .text          0x08062ba0      0x2dc d:/software/work/gcc-arm-none-eabi-10.3-2021.07/bin/../lib/gcc/arm-none-eabi/10.3.1/../../../../arm-none-eabi/lib/thumb/v7e-m+dp/hard\libc.a(lib_a-strcmp.o)
                0x08062ba8                strcmp
 .text          0x08062e7c        0x0 d:/software/work/gcc-arm-none-eabi-10.3-2021.07/bin/../lib/gcc/arm-none-eabi/10.3.1/../../../../arm-none-eabi/lib/thumb/v7e-m+dp/hard\libc.a(lib_a-strcpy.o)
 *fill*         0x08062e7c        0x4 
 .text          0x08062e80       0xdc d:/software/work/gcc-arm-none-eabi-10.3-2021.07/bin/../lib/gcc/arm-none-eabi/10.3.1/../../../../arm-none-eabi/lib/thumb/v7e-m+dp/hard\libc.a(lib_a-strlen.o)
                0x08062e80                strlen
 .text          0x08062f5c        0x0 d:/software/work/gcc-arm-none-eabi-10.3-2021.07/bin/../lib/gcc/arm-none-eabi/10.3.1/../../../../arm-none-eabi/lib/thumb/v7e-m+dp/hard\libc.a(lib_a-strncmp.o)
 .text          0x08062f5c        0x0 d:/software/work/gcc-arm-none-eabi-10.3-2021.07/bin/../lib/gcc/arm-none-eabi/10.3.1/../../../../arm-none-eabi/lib/thumb/v7e-m+dp/hard\libc.a(lib_a-strncpy.o)
 .text          0x08062f5c        0x0 d:/software/work/gcc-arm-none-eabi-10.3-2021.07/bin/../lib/gcc/arm-none-eabi/10.3.1/../../../../arm-none-eabi/lib/thumb/v7e-m+dp/hard\libc.a(lib_a-strrchr.o)
 .text          0x08062f5c        0x0 d:/software/work/gcc-arm-none-eabi-10.3-2021.07/bin/../lib/gcc/arm-none-eabi/10.3.1/../../../../arm-none-eabi/lib/thumb/v7e-m+dp/hard\libc.a(lib_a-strtol.o)
 .text          0x08062f5c        0x0 d:/software/work/gcc-arm-none-eabi-10.3-2021.07/bin/../lib/gcc/arm-none-eabi/10.3.1/../../../../arm-none-eabi/lib/thumb/v7e-m+dp/hard\libc.a(lib_a-__call_atexit.o)
 .text          0x08062f5c        0x0 d:/software/work/gcc-arm-none-eabi-10.3-2021.07/bin/../lib/gcc/arm-none-eabi/10.3.1/../../../../arm-none-eabi/lib/thumb/v7e-m+dp/hard\libc.a(lib_a-atexit.o)
 .text          0x08062f5c        0x0 d:/software/work/gcc-arm-none-eabi-10.3-2021.07/bin/../lib/gcc/arm-none-eabi/10.3.1/../../../../arm-none-eabi/lib/thumb/v7e-m+dp/hard\libc.a(lib_a-ctype_.o)
 .text          0x08062f5c        0x0 d:/software/work/gcc-arm-none-eabi-10.3-2021.07/bin/../lib/gcc/arm-none-eabi/10.3.1/../../../../arm-none-eabi/lib/thumb/v7e-m+dp/hard\libc.a(lib_a-errno.o)
 .text          0x08062f5c        0x0 d:/software/work/gcc-arm-none-eabi-10.3-2021.07/bin/../lib/gcc/arm-none-eabi/10.3.1/../../../../arm-none-eabi/lib/thumb/v7e-m+dp/hard\libc.a(lib_a-fini.o)
 .text          0x08062f5c        0x0 d:/software/work/gcc-arm-none-eabi-10.3-2021.07/bin/../lib/gcc/arm-none-eabi/10.3.1/../../../../arm-none-eabi/lib/thumb/v7e-m+dp/hard\libc.a(lib_a-lock.o)
 .text          0x08062f5c        0x0 d:/software/work/gcc-arm-none-eabi-10.3-2021.07/bin/../lib/gcc/arm-none-eabi/10.3.1/../../../../arm-none-eabi/lib/thumb/v7e-m+dp/hard\libc.a(lib_a-strchr.o)
 .text          0x08062f5c        0x0 d:/software/work/gcc-arm-none-eabi-10.3-2021.07/bin/../lib/gcc/arm-none-eabi/10.3.1/../../../../arm-none-eabi/lib/thumb/v7e-m+dp/hard\libc.a(lib_a-__atexit.o)
 .text          0x08062f5c        0x0 d:/software/work/gcc-arm-none-eabi-10.3-2021.07/bin/../lib/gcc/arm-none-eabi/10.3.1/thumb/v7e-m+dp/hard/crtend.o
 .text          0x08062f5c        0x0 d:/software/work/gcc-arm-none-eabi-10.3-2021.07/bin/../lib/gcc/arm-none-eabi/10.3.1/thumb/v7e-m+dp/hard/crtn.o
 *(.text*)
 .text.Reset_Handler
                0x08062f5c       0x50 ./build/startup_stm32h750xx.o
                0x08062f5c                Reset_Handler
 .text.Default_Handler
                0x08062fac        0x2 ./build/startup_stm32h750xx.o
                0x08062fac                LTDC_ER_IRQHandler
                0x08062fac                DMA2_Stream5_IRQHandler
                0x08062fac                OTG_HS_WKUP_IRQHandler
                0x08062fac                DFSDM1_FLT1_IRQHandler
                0x08062fac                HRTIM1_TIMA_IRQHandler
                0x08062fac                SWPMI1_IRQHandler
                0x08062fac                TIM8_UP_TIM13_IRQHandler
                0x08062fac                BDMA_Channel1_IRQHandler
                0x08062fac                BDMA_Channel4_IRQHandler
                0x08062fac                DMA2_Stream7_IRQHandler
                0x08062fac                CRS_IRQHandler
                0x08062fac                SAI2_IRQHandler
                0x08062fac                ADC3_IRQHandler
                0x08062fac                OTG_FS_WKUP_IRQHandler
                0x08062fac                JPEG_IRQHandler
                0x08062fac                TIM8_CC_IRQHandler
                0x08062fac                ETH_IRQHandler
                0x08062fac                SPI2_IRQHandler
                0x08062fac                HRTIM1_TIME_IRQHandler
                0x08062fac                SPI1_IRQHandler
                0x08062fac                HRTIM1_TIMB_IRQHandler
                0x08062fac                TIM5_IRQHandler
                0x08062fac                TIM17_IRQHandler
                0x08062fac                BDMA_Channel3_IRQHandler
                0x08062fac                FDCAN2_IT0_IRQHandler
                0x08062fac                ADC_IRQHandler
                0x08062fac                BDMA_Channel5_IRQHandler
                0x08062fac                I2C4_EV_IRQHandler
                0x08062fac                BDMA_Channel7_IRQHandler
                0x08062fac                CRYP_IRQHandler
                0x08062fac                LPTIM5_IRQHandler
                0x08062fac                DMA1_Stream6_IRQHandler
                0x08062fac                DMA1_Stream1_IRQHandler
                0x08062fac                WWDG_IRQHandler
                0x08062fac                WAKEUP_PIN_IRQHandler
                0x08062fac                DMA2D_IRQHandler
                0x08062fac                DMA2_Stream0_IRQHandler
                0x08062fac                I2C3_EV_IRQHandler
                0x08062fac                SPI4_IRQHandler
                0x08062fac                DMA1_Stream2_IRQHandler
                0x08062fac                RCC_IRQHandler
                0x08062fac                I2C1_ER_IRQHandler
                0x08062fac                HRTIM1_Master_IRQHandler
                0x08062fac                SAI4_IRQHandler
                0x08062fac                DMA2_Stream3_IRQHandler
                0x08062fac                BDMA_Channel0_IRQHandler
                0x08062fac                HRTIM1_TIMC_IRQHandler
                0x08062fac                OTG_HS_EP1_OUT_IRQHandler
                0x08062fac                DMA2_Stream4_IRQHandler
                0x08062fac                TIM1_UP_IRQHandler
                0x08062fac                SAI1_IRQHandler
                0x08062fac                I2C2_EV_IRQHandler
                0x08062fac                CEC_IRQHandler
                0x08062fac                OTG_FS_EP1_OUT_IRQHandler
                0x08062fac                LPUART1_IRQHandler
                0x08062fac                DMAMUX2_OVR_IRQHandler
                0x08062fac                TIM3_IRQHandler
                0x08062fac                SPI6_IRQHandler
                0x08062fac                DMA1_Stream0_IRQHandler
                0x08062fac                DMA1_Stream7_IRQHandler
                0x08062fac                TIM6_DAC_IRQHandler
                0x08062fac                DMA1_Stream4_IRQHandler
                0x08062fac                TIM8_TRG_COM_TIM14_IRQHandler
                0x08062fac                LTDC_IRQHandler
                0x08062fac                PVD_AVD_IRQHandler
                0x08062fac                FMC_IRQHandler
                0x08062fac                ECC_IRQHandler
                0x08062fac                FLASH_IRQHandler
                0x08062fac                QUADSPI_IRQHandler
                0x08062fac                TIM8_BRK_TIM12_IRQHandler
                0x08062fac                TIM1_BRK_IRQHandler
                0x08062fac                BDMA_Channel2_IRQHandler
                0x08062fac                RTC_WKUP_IRQHandler
                0x08062fac                TIM2_IRQHandler
                0x08062fac                I2C4_ER_IRQHandler
                0x08062fac                HSEM1_IRQHandler
                0x08062fac                TAMP_STAMP_IRQHandler
                0x08062fac                HASH_RNG_IRQHandler
                0x08062fac                DMA2_Stream6_IRQHandler
                0x08062fac                LPTIM2_IRQHandler
                0x08062fac                LPTIM4_IRQHandler
                0x08062fac                COMP1_IRQHandler
                0x08062fac                DFSDM1_FLT2_IRQHandler
                0x08062fac                OTG_HS_EP1_IN_IRQHandler
                0x08062fac                LPTIM3_IRQHandler
                0x08062fac                Default_Handler
                0x08062fac                DMAMUX1_OVR_IRQHandler
                0x08062fac                ETH_WKUP_IRQHandler
                0x08062fac                OTG_FS_IRQHandler
                0x08062fac                OTG_FS_EP1_IN_IRQHandler
                0x08062fac                UART5_IRQHandler
                0x08062fac                DMA1_Stream5_IRQHandler
                0x08062fac                FDCAN_CAL_IRQHandler
                0x08062fac                TIM4_IRQHandler
                0x08062fac                UART7_IRQHandler
                0x08062fac                DFSDM1_FLT3_IRQHandler
                0x08062fac                I2C3_ER_IRQHandler
                0x08062fac                BDMA_Channel6_IRQHandler
                0x08062fac                SAI3_IRQHandler
                0x08062fac                TIM15_IRQHandler
                0x08062fac                TIM16_IRQHandler
                0x08062fac                HRTIM1_TIMD_IRQHandler
                0x08062fac                I2C2_ER_IRQHandler
                0x08062fac                SPDIF_RX_IRQHandler
                0x08062fac                MDIOS_IRQHandler
                0x08062fac                TIM1_TRG_COM_IRQHandler
                0x08062fac                DMA2_Stream2_IRQHandler
                0x08062fac                DMA2_Stream1_IRQHandler
                0x08062fac                FPU_IRQHandler
                0x08062fac                DCMI_IRQHandler
                0x08062fac                FDCAN2_IT1_IRQHandler
                0x08062fac                I2C1_EV_IRQHandler
                0x08062fac                TIM1_CC_IRQHandler
                0x08062fac                LPTIM1_IRQHandler
                0x08062fac                SPI3_IRQHandler
                0x08062fac                DFSDM1_FLT0_IRQHandler
                0x08062fac                OTG_HS_IRQHandler
                0x08062fac                MDIOS_WKUP_IRQHandler
                0x08062fac                DMA1_Stream3_IRQHandler
                0x08062fac                SPI5_IRQHandler
                0x08062fac                TIM7_IRQHandler
                0x08062fac                RTC_Alarm_IRQHandler
                0x08062fac                MDMA_IRQHandler
                0x08062fac                HRTIM1_FLT_IRQHandler
 *fill*         0x08062fae        0x2 
 .text.atoi     0x08062fb0        0x8 d:/software/work/gcc-arm-none-eabi-10.3-2021.07/bin/../lib/gcc/arm-none-eabi/10.3.1/../../../../arm-none-eabi/lib/thumb/v7e-m+dp/hard\libc.a(lib_a-atoi.o)
                0x08062fb0                atoi
 .text._atoi_r  0x08062fb8        0x8 d:/software/work/gcc-arm-none-eabi-10.3-2021.07/bin/../lib/gcc/arm-none-eabi/10.3.1/../../../../arm-none-eabi/lib/thumb/v7e-m+dp/hard\libc.a(lib_a-atoi.o)
                0x08062fb8                _atoi_r
 .text.exit     0x08062fc0       0x20 d:/software/work/gcc-arm-none-eabi-10.3-2021.07/bin/../lib/gcc/arm-none-eabi/10.3.1/../../../../arm-none-eabi/lib/thumb/v7e-m+dp/hard\libc.a(lib_a-exit.o)
                0x08062fc0                exit
 .text.__libc_init_array
                0x08062fe0       0x48 d:/software/work/gcc-arm-none-eabi-10.3-2021.07/bin/../lib/gcc/arm-none-eabi/10.3.1/../../../../arm-none-eabi/lib/thumb/v7e-m+dp/hard\libc.a(lib_a-init.o)
                0x08062fe0                __libc_init_array
 .text.memcmp   0x08063028       0x64 d:/software/work/gcc-arm-none-eabi-10.3-2021.07/bin/../lib/gcc/arm-none-eabi/10.3.1/../../../../arm-none-eabi/lib/thumb/v7e-m+dp/hard\libc.a(lib_a-memcmp.o)
                0x08063028                memcmp
 .text.memset   0x0806308c       0xa4 d:/software/work/gcc-arm-none-eabi-10.3-2021.07/bin/../lib/gcc/arm-none-eabi/10.3.1/../../../../arm-none-eabi/lib/thumb/v7e-m+dp/hard\libc.a(lib_a-memset.o)
                0x0806308c                memset
 .text.strcat   0x08063130       0x40 d:/software/work/gcc-arm-none-eabi-10.3-2021.07/bin/../lib/gcc/arm-none-eabi/10.3.1/../../../../arm-none-eabi/lib/thumb/v7e-m+dp/hard\libc.a(lib_a-strcat.o)
                0x08063130                strcat
 .text.strcpy   0x08063170       0xbc d:/software/work/gcc-arm-none-eabi-10.3-2021.07/bin/../lib/gcc/arm-none-eabi/10.3.1/../../../../arm-none-eabi/lib/thumb/v7e-m+dp/hard\libc.a(lib_a-strcpy.o)
                0x08063170                strcpy
 .text.strncmp  0x0806322c       0x80 d:/software/work/gcc-arm-none-eabi-10.3-2021.07/bin/../lib/gcc/arm-none-eabi/10.3.1/../../../../arm-none-eabi/lib/thumb/v7e-m+dp/hard\libc.a(lib_a-strncmp.o)
                0x0806322c                strncmp
 .text.strncpy  0x080632ac       0x64 d:/software/work/gcc-arm-none-eabi-10.3-2021.07/bin/../lib/gcc/arm-none-eabi/10.3.1/../../../../arm-none-eabi/lib/thumb/v7e-m+dp/hard\libc.a(lib_a-strncpy.o)
                0x080632ac                strncpy
 .text.strrchr  0x08063310       0x24 d:/software/work/gcc-arm-none-eabi-10.3-2021.07/bin/../lib/gcc/arm-none-eabi/10.3.1/../../../../arm-none-eabi/lib/thumb/v7e-m+dp/hard\libc.a(lib_a-strrchr.o)
                0x08063310                strrchr
 .text._strtol_l.part.0
                0x08063334      0x120 d:/software/work/gcc-arm-none-eabi-10.3-2021.07/bin/../lib/gcc/arm-none-eabi/10.3.1/../../../../arm-none-eabi/lib/thumb/v7e-m+dp/hard\libc.a(lib_a-strtol.o)
 .text._strtol_r
                0x08063454       0x1c d:/software/work/gcc-arm-none-eabi-10.3-2021.07/bin/../lib/gcc/arm-none-eabi/10.3.1/../../../../arm-none-eabi/lib/thumb/v7e-m+dp/hard\libc.a(lib_a-strtol.o)
                0x08063454                _strtol_r
 .text.strtol_l
                0x08063470       0x2c d:/software/work/gcc-arm-none-eabi-10.3-2021.07/bin/../lib/gcc/arm-none-eabi/10.3.1/../../../../arm-none-eabi/lib/thumb/v7e-m+dp/hard\libc.a(lib_a-strtol.o)
                0x08063470                strtol_l
 .text.strtol   0x0806349c       0x2c d:/software/work/gcc-arm-none-eabi-10.3-2021.07/bin/../lib/gcc/arm-none-eabi/10.3.1/../../../../arm-none-eabi/lib/thumb/v7e-m+dp/hard\libc.a(lib_a-strtol.o)
                0x0806349c                strtol
 .text.startup.register_fini
                0x080634c8       0x14 d:/software/work/gcc-arm-none-eabi-10.3-2021.07/bin/../lib/gcc/arm-none-eabi/10.3.1/../../../../arm-none-eabi/lib/thumb/v7e-m+dp/hard\libc.a(lib_a-__call_atexit.o)
 .text.__call_exitprocs
                0x080634dc       0xcc d:/software/work/gcc-arm-none-eabi-10.3-2021.07/bin/../lib/gcc/arm-none-eabi/10.3.1/../../../../arm-none-eabi/lib/thumb/v7e-m+dp/hard\libc.a(lib_a-__call_atexit.o)
                0x080634dc                __call_exitprocs
 .text.atexit   0x080635a8        0xc d:/software/work/gcc-arm-none-eabi-10.3-2021.07/bin/../lib/gcc/arm-none-eabi/10.3.1/../../../../arm-none-eabi/lib/thumb/v7e-m+dp/hard\libc.a(lib_a-atexit.o)
                0x080635a8                atexit
 .text.__errno  0x080635b4        0xc d:/software/work/gcc-arm-none-eabi-10.3-2021.07/bin/../lib/gcc/arm-none-eabi/10.3.1/../../../../arm-none-eabi/lib/thumb/v7e-m+dp/hard\libc.a(lib_a-errno.o)
                0x080635b4                __errno
 .text.__libc_fini_array
                0x080635c0       0x2c d:/software/work/gcc-arm-none-eabi-10.3-2021.07/bin/../lib/gcc/arm-none-eabi/10.3.1/../../../../arm-none-eabi/lib/thumb/v7e-m+dp/hard\libc.a(lib_a-fini.o)
                0x080635c0                __libc_fini_array
 .text.__retarget_lock_init
                0x080635ec        0x4 d:/software/work/gcc-arm-none-eabi-10.3-2021.07/bin/../lib/gcc/arm-none-eabi/10.3.1/../../../../arm-none-eabi/lib/thumb/v7e-m+dp/hard\libc.a(lib_a-lock.o)
                0x080635ec                __retarget_lock_init
 .text.__retarget_lock_init_recursive
                0x080635f0        0x4 d:/software/work/gcc-arm-none-eabi-10.3-2021.07/bin/../lib/gcc/arm-none-eabi/10.3.1/../../../../arm-none-eabi/lib/thumb/v7e-m+dp/hard\libc.a(lib_a-lock.o)
                0x080635f0                __retarget_lock_init_recursive
 .text.__retarget_lock_close
                0x080635f4        0x4 d:/software/work/gcc-arm-none-eabi-10.3-2021.07/bin/../lib/gcc/arm-none-eabi/10.3.1/../../../../arm-none-eabi/lib/thumb/v7e-m+dp/hard\libc.a(lib_a-lock.o)
                0x080635f4                __retarget_lock_close
 .text.__retarget_lock_close_recursive
                0x080635f8        0x4 d:/software/work/gcc-arm-none-eabi-10.3-2021.07/bin/../lib/gcc/arm-none-eabi/10.3.1/../../../../arm-none-eabi/lib/thumb/v7e-m+dp/hard\libc.a(lib_a-lock.o)
                0x080635f8                __retarget_lock_close_recursive
 .text.__retarget_lock_acquire
                0x080635fc        0x4 d:/software/work/gcc-arm-none-eabi-10.3-2021.07/bin/../lib/gcc/arm-none-eabi/10.3.1/../../../../arm-none-eabi/lib/thumb/v7e-m+dp/hard\libc.a(lib_a-lock.o)
                0x080635fc                __retarget_lock_acquire
 .text.__retarget_lock_acquire_recursive
                0x08063600        0x4 d:/software/work/gcc-arm-none-eabi-10.3-2021.07/bin/../lib/gcc/arm-none-eabi/10.3.1/../../../../arm-none-eabi/lib/thumb/v7e-m+dp/hard\libc.a(lib_a-lock.o)
                0x08063600                __retarget_lock_acquire_recursive
 .text.__retarget_lock_try_acquire
                0x08063604        0x4 d:/software/work/gcc-arm-none-eabi-10.3-2021.07/bin/../lib/gcc/arm-none-eabi/10.3.1/../../../../arm-none-eabi/lib/thumb/v7e-m+dp/hard\libc.a(lib_a-lock.o)
                0x08063604                __retarget_lock_try_acquire
 .text.__retarget_lock_try_acquire_recursive
                0x08063608        0x4 d:/software/work/gcc-arm-none-eabi-10.3-2021.07/bin/../lib/gcc/arm-none-eabi/10.3.1/../../../../arm-none-eabi/lib/thumb/v7e-m+dp/hard\libc.a(lib_a-lock.o)
                0x08063608                __retarget_lock_try_acquire_recursive
 .text.__retarget_lock_release
                0x0806360c        0x4 d:/software/work/gcc-arm-none-eabi-10.3-2021.07/bin/../lib/gcc/arm-none-eabi/10.3.1/../../../../arm-none-eabi/lib/thumb/v7e-m+dp/hard\libc.a(lib_a-lock.o)
                0x0806360c                __retarget_lock_release
 .text.__retarget_lock_release_recursive
                0x08063610        0x4 d:/software/work/gcc-arm-none-eabi-10.3-2021.07/bin/../lib/gcc/arm-none-eabi/10.3.1/../../../../arm-none-eabi/lib/thumb/v7e-m+dp/hard\libc.a(lib_a-lock.o)
                0x08063610                __retarget_lock_release_recursive
 .text.strchr   0x08063614       0xcc d:/software/work/gcc-arm-none-eabi-10.3-2021.07/bin/../lib/gcc/arm-none-eabi/10.3.1/../../../../arm-none-eabi/lib/thumb/v7e-m+dp/hard\libc.a(lib_a-strchr.o)
                0x08063614                strchr
 .text.__register_exitproc
                0x080636e0       0x8c d:/software/work/gcc-arm-none-eabi-10.3-2021.07/bin/../lib/gcc/arm-none-eabi/10.3.1/../../../../arm-none-eabi/lib/thumb/v7e-m+dp/hard\libc.a(lib_a-__atexit.o)
                0x080636e0                __register_exitproc
 *(.glue_7)
 .glue_7        0x0806376c        0x0 linker stubs
 *(.glue_7t)
 .glue_7t       0x0806376c        0x0 linker stubs
 *(.eh_frame)
 .eh_frame      0x0806376c        0x0 d:/software/work/gcc-arm-none-eabi-10.3-2021.07/bin/../lib/gcc/arm-none-eabi/10.3.1/thumb/v7e-m+dp/hard/crtbegin.o
 .eh_frame      0x0806376c        0x4 d:/software/work/gcc-arm-none-eabi-10.3-2021.07/bin/../lib/gcc/arm-none-eabi/10.3.1/thumb/v7e-m+dp/hard/crtend.o
 *(.init)
 .init          0x08063770        0x4 d:/software/work/gcc-arm-none-eabi-10.3-2021.07/bin/../lib/gcc/arm-none-eabi/10.3.1/thumb/v7e-m+dp/hard/crti.o
                0x08063770                _init
 .init          0x08063774        0x8 d:/software/work/gcc-arm-none-eabi-10.3-2021.07/bin/../lib/gcc/arm-none-eabi/10.3.1/thumb/v7e-m+dp/hard/crtn.o
 *(.fini)
 .fini          0x0806377c        0x4 d:/software/work/gcc-arm-none-eabi-10.3-2021.07/bin/../lib/gcc/arm-none-eabi/10.3.1/thumb/v7e-m+dp/hard/crti.o
                0x0806377c                _fini
 .fini          0x08063780        0x8 d:/software/work/gcc-arm-none-eabi-10.3-2021.07/bin/../lib/gcc/arm-none-eabi/10.3.1/thumb/v7e-m+dp/hard/crtn.o
                0x08063788                . = ALIGN (0x4)
                0x08063788                __fsymtab_start = .
 *(FSymTab)
 FSymTab        0x08063788        0xc ./build/drv_common.o
                0x08063788                __fsym_reboot
 FSymTab        0x08063794        0xc ./build/dfs.o
                0x08063794                __fsym_list_fd
 FSymTab        0x080637a0        0xc ./build/can.o
                0x080637a0                __fsym_canstat
 FSymTab        0x080637ac        0xc ./build/adc.o
                0x080637ac                __fsym_adc
 FSymTab        0x080637b8       0x30 ./build/sensor_cmd.o
                0x080637b8                __fsym_sensor
                0x080637c4                __fsym_sensor_polling
                0x080637d0                __fsym_sensor_int
                0x080637dc                __fsym_sensor_fifo
 FSymTab        0x080637e8       0x84 ./build/cmd.o
                0x080637e8                __fsym_list_device
                0x080637f4                __fsym_list_timer
                0x08063800                __fsym_list_mempool
                0x0806380c                __fsym_list_msgqueue
                0x08063818                __fsym_list_mailbox
                0x08063824                __fsym_list_mutex
                0x08063830                __fsym_list_event
                0x0806383c                __fsym_list_sem
                0x08063848                __fsym_list_thread
                0x08063854                __fsym_version
                0x08063860                __fsym_clear
 FSymTab        0x0806386c       0x24 ./build/msh.o
                0x0806386c                __fsym_free
                0x08063878                __fsym_ps
                0x08063884                __fsym_help
                0x08063890                __fsymtab_end = .
                0x08063890                . = ALIGN (0x4)
                0x08063890                __vsymtab_start = .
 *(VSymTab)
                0x08063890                __vsymtab_end = .
                0x08063890                . = ALIGN (0x4)
                0x08063890                __rt_init_start = .
 *(SORT_BY_NAME(.rti_fn*))
 .rti_fn.0      0x08063890        0x4 ./build/components.o
                0x08063890                __rt_init_rti_start
 .rti_fn.0.end  0x08063894        0x4 ./build/components.o
                0x08063894                __rt_init_rti_board_start
 .rti_fn.1      0x08063898        0x4 ./build/drv_soft_i2c.o
                0x08063898                __rt_init_rt_hw_i2c_init
 .rti_fn.1      0x0806389c        0x4 ./build/drv_spi.o
                0x0806389c                __rt_init_rt_hw_spi_init
 .rti_fn.1      0x080638a0        0x4 ./build/drv_fdcan.o
                0x080638a0                __rt_init_rt_hw_can_init
 .rti_fn.1      0x080638a4        0x4 ./build/usbdevice.o
                0x080638a4                __rt_init_rt_usbd_class_list_init
 .rti_fn.1.end  0x080638a8        0x4 ./build/components.o
                0x080638a8                __rt_init_rti_board_end
 .rti_fn.2      0x080638ac        0x4 ./build/dfs.o
                0x080638ac                __rt_init_dfs_init
 .rti_fn.2      0x080638b0        0x4 ./build/mmcsd_core.o
                0x080638b0                __rt_init_rt_mmcsd_core_init
 .rti_fn.2      0x080638b4        0x4 ./build/winusb.o
                0x080638b4                __rt_init_rt_usbd_winusb_class_register
 .rti_fn.2      0x080638b8        0x4 ./build/audio_mic.o
                0x080638b8                __rt_init_rt_usbd_uac_mic_class_register
 .rti_fn.2      0x080638bc        0x4 ./build/audio_speaker.o
                0x080638bc                __rt_init_rt_usbd_uac_speaker_class_register
 .rti_fn.3      0x080638c0        0x4 ./build/drv_sdio.o
                0x080638c0                __rt_init_rt_hw_sdio_init
 .rti_fn.3      0x080638c4        0x4 ./build/sensor_intf_hmc5883l.o
                0x080638c4                __rt_init_rt_hw_hmc5883l_port
 .rti_fn.3      0x080638c8        0x4 ./build/sensor_intf_mmc5983ma.o
                0x080638c8                __rt_init_rt_hw_mmc5983ma_port
 .rti_fn.4      0x080638cc        0x4 ./build/i2c_core.o
                0x080638cc                __rt_init_rt_i2c_core_init
 .rti_fn.4      0x080638d0        0x4 ./build/audio_mic.o
                0x080638d0                __rt_init_audio_mic_init
 .rti_fn.4      0x080638d4        0x4 ./build/audio_speaker.o
                0x080638d4                __rt_init_audio_speaker_init
 .rti_fn.6      0x080638d8        0x4 ./build/shell.o
                0x080638d8                __rt_init_finsh_system_init
 .rti_fn.6.end  0x080638dc        0x4 ./build/components.o
                0x080638dc                __rt_init_rti_end
                0x080638e0                __rt_init_end = .
                0x080638e0                . = ALIGN (0x4)
                0x080638e0                . = ALIGN (0x4)
                0x080638e0                _etext = .
                0x080638e0                _exit = .

.vfp11_veneer   0x080638e0        0x0
 .vfp11_veneer  0x080638e0        0x0 linker stubs

.v4_bx          0x080638e0        0x0
 .v4_bx         0x080638e0        0x0 linker stubs

.iplt           0x080638e0        0x0
 .iplt          0x080638e0        0x0 d:/software/work/gcc-arm-none-eabi-10.3-2021.07/bin/../lib/gcc/arm-none-eabi/10.3.1/thumb/v7e-m+dp/hard/crtbegin.o

.rodata         0x080638e0     0x713c
                0x080638e0                . = ALIGN (0x4)
 *(.rodata)
 .rodata        0x080638e0       0x24 d:/software/work/gcc-arm-none-eabi-10.3-2021.07/bin/../lib/gcc/arm-none-eabi/10.3.1/thumb/v7e-m+dp/hard/crtbegin.o
 .rodata        0x08063904       0x24 ./build/drv_sdio.o
 .rodata        0x08063928      0x10d ./build/drv_usart_v2.o
 *fill*         0x08063a35        0x3 
 .rodata        0x08063a38       0x37 ./build/drv_soft_i2c.o
 *fill*         0x08063a6f        0x1 
 .rodata        0x08063a70       0x5c ./build/drv_gpio.o
 .rodata        0x08063acc       0x5c ./build/drv_spi.o
 .rodata        0x08063b28       0xe8 ./build/drv_fdcan.o
 .rodata        0x08063c10       0x10 ./build/system_stm32h7xx.o
                0x08063c10                D1CorePrescTable
 .rodata        0x08063c20        0x8 ./build/stm32h7xx_ll_dma.o
 .rodata        0x08063c28       0x10 ./build/stm32h7xx_hal_cryp.o
 .rodata        0x08063c38       0x18 ./build/stm32h7xx_hal_hrtim.o
 .rodata        0x08063c50       0x5c ./build/stm32h7xx_hal_fdcan.o
 .rodata        0x08063cac       0x18 ./build/stm32h7xx_ll_lpuart.o
 .rodata        0x08063cc4       0x18 ./build/stm32h7xx_hal_smartcard.o
 .rodata        0x08063cdc       0x30 ./build/stm32h7xx_ll_usart.o
 .rodata        0x08063d0c       0x10 ./build/stm32h7xx_hal_uart_ex.o
 .rodata        0x08063d1c       0x10 ./build/stm32h7xx_hal_smartcard_ex.o
 .rodata        0x08063d2c       0x18 ./build/stm32h7xx_hal_uart.o
                0x08063d2c                UARTPrescTable
 .rodata        0x08063d44       0x10 ./build/stm32h7xx_ll_rcc.o
                0x08063d44                LL_RCC_PrescTable
 .rodata        0x08063d54       0x18 ./build/stm32h7xx_hal_irda.o
 .rodata        0x08063d6c        0x8 ./build/stm32h7xx_ll_bdma.o
 .rodata        0x08063d74        0x8 ./build/stm32h7xx_hal_dma.o
 .rodata        0x08063d7c       0x40 ./build/stm32h7xx_ll_mdma.o
 .rodata        0x08063dbc      0x260 ./build/stm32h7xx_hal_jpeg.o
 .rodata        0x0806401c       0x10 ./build/stm32h7xx_hal_usart_ex.o
 .rodata        0x0806402c       0x1e ./build/bmi088.o
 *fill*         0x0806404a        0x2 
 .rodata        0x0806404c       0x27 ./build/dfs.o
 *fill*         0x08064073        0x1 
 .rodata        0x08064074        0x7 ./build/select.o
 *fill*         0x0806407b        0x1 
 .rodata        0x0806407c       0x44 ./build/dfs_fs.o
 .rodata        0x080640c0       0x63 ./build/audio_pipe.o
 *fill*         0x08064123        0x1 
 .rodata        0x08064124       0x9a ./build/audio.o
 *fill*         0x080641be        0x2 
 .rodata        0x080641c0       0xae ./build/can.o
 *fill*         0x0806426e        0x2 
 .rodata        0x08064270       0x62 ./build/i2c_dev.o
 *fill*         0x080642d2        0x2 
 .rodata        0x080642d4        0xc ./build/i2c-bit-ops.o
 .rodata        0x080642e0       0x13 ./build/i2c_core.o
 *fill*         0x080642f3        0x1 
 .rodata        0x080642f4       0x3b ./build/completion.o
 *fill*         0x0806432f        0x1 
 .rodata        0x08064330        0xf ./build/waitqueue.o
 *fill*         0x0806433f        0x1 
 .rodata        0x08064340       0x1f ./build/pipe.o
 *fill*         0x0806435f        0x1 
 .rodata        0x08064360       0xf6 ./build/ringbuffer.o
 *fill*         0x08064456        0x2 
 .rodata        0x08064458       0x8e ./build/dataqueue.o
 *fill*         0x080644e6        0x2 
 .rodata        0x080644e8      0x105 ./build/workqueue.o
 *fill*         0x080645ed        0x3 
 .rodata        0x080645f0      0x128 ./build/ringblk_buf.o
 .rodata        0x08064718       0x3f ./build/adc.o
 *fill*         0x08064757        0x1 
 .rodata        0x08064758       0x97 ./build/pin.o
 *fill*         0x080647ef        0x1 
 .rodata        0x080647f0       0x60 ./build/sd.o
 .rodata        0x08064850      0x12e ./build/sdio.o
 *fill*         0x0806497e        0x2 
 .rodata        0x08064980       0x78 ./build/mmc.o
 .rodata        0x080649f8       0x13 ./build/mmcsd_core.o
 *fill*         0x08064a0b        0x1 
 .rodata        0x08064a0c       0xb4 ./build/sensor.o
 .rodata        0x08064ac0      0x1a9 ./build/serial_v2.o
 *fill*         0x08064c69        0x3 
 .rodata        0x08064c6c       0xab ./build/spi_core.o
 *fill*         0x08064d17        0x1 
 .rodata        0x08064d18        0xf ./build/spi_msd.o
 *fill*         0x08064d27        0x1 
 .rodata        0x08064d28       0x8a ./build/spi_dev.o
 *fill*         0x08064db2        0x2 
 .rodata        0x08064db4       0x7b ./build/winusb.o
 *fill*         0x08064e2f        0x1 
 .rodata        0x08064e30       0x72 ./build/audio_mic.o
 *fill*         0x08064ea2        0x2 
 .rodata        0x08064ea4       0x76 ./build/audio_speaker.o
 *fill*         0x08064f1a        0x2 
 .rodata        0x08064f1c      0x6c8 ./build/usbdevice_core.o
 .rodata        0x080655e4       0x7c ./build/cmd.o
 .rodata        0x08065660        0xe ./build/msh.o
 *fill*         0x0806566e        0x2 
 .rodata        0x08065670       0x97 ./build/shell.o
 *fill*         0x08065707        0x1 
 .rodata        0x08065708       0x13 ./build/cpuport.o
 *fill*         0x0806571b        0x1 
 .rodata        0x0806571c       0x14 ./build/components.o
 .rodata        0x08065730       0x71 ./build/timer.o
 *fill*         0x080657a1        0x3 
 .rodata        0x080657a4       0xce ./build/thread.o
 *fill*         0x08065872        0x2 
 .rodata        0x08065874       0x8b ./build/object.o
 *fill*         0x080658ff        0x1 
 .rodata        0x08065900       0xc6 ./build/device.o
 *fill*         0x080659c6        0x2 
 .rodata        0x080659c8      0x256 ./build/ipc.o
 *fill*         0x08065c1e        0x2 
 .rodata        0x08065c20       0x49 ./build/kservice.o
 *fill*         0x08065c69        0x3 
 .rodata        0x08065c6c       0x52 ./build/scheduler.o
 *fill*         0x08065cbe        0x2 
 .rodata        0x08065cc0       0x48 ./build/mempool.o
 .rodata        0x08065d08       0x4c ./build/mem.o
 .rodata        0x08065d54       0x24 d:/software/work/gcc-arm-none-eabi-10.3-2021.07/bin/../lib/gcc/arm-none-eabi/10.3.1/thumb/v7e-m+dp/hard/crtend.o
 *(.rodata*)
 .rodata.str1.4
                0x08065d78       0xad ./build/drv_sdio.o
                                 0xb1 (size before relaxing)
 *fill*         0x08065e25        0x3 
 .rodata.str1.4
                0x08065e28      0x122 ./build/drv_usart_v2.o
                                0x12a (size before relaxing)
 *fill*         0x08065f4a        0x2 
 .rodata.str1.4
                0x08065f4c        0x5 ./build/drv_soft_i2c.o
                                 0x19 (size before relaxing)
 *fill*         0x08065f51        0x3 
 .rodata.str1.4
                0x08065f54        0x4 ./build/drv_gpio.o
 .rodata.str1.4
                0x08065f58      0x139 ./build/drv_spi.o
                                0x175 (size before relaxing)
 *fill*         0x08066091        0x3 
 .rodata.str1.4
                0x08066094       0x30 ./build/drv_common.o
                                 0x3a (size before relaxing)
 .rodata.name   0x080660c4       0x17 ./build/drv_common.o
                0x080660c4                __fsym_reboot_desc
                0x080660d4                __fsym_reboot_name
 *fill*         0x080660db        0x1 
 .rodata.str1.4
                0x080660dc       0x5b ./build/drv_fdcan.o
 *fill*         0x08066137        0x1 
 .rodata.str1.4
                0x08066138       0x6d ./build/bmi088_sample.o
                                 0x71 (size before relaxing)
 *fill*         0x080661a5        0x3 
 .rodata.str1.4
                0x080661a8       0x82 ./build/sensor_intf_bmi088.o
                                 0x92 (size before relaxing)
 *fill*         0x0806622a        0x2 
 .rodata.str1.4
                0x0806622c      0x17c ./build/bmi088.o
                                0x18c (size before relaxing)
 .rodata.str1.4
                0x080663a8       0x5a ./build/sensor_intf_hmc5883l.o
                                 0x92 (size before relaxing)
 *fill*         0x08066402        0x2 
 .rodata.str1.4
                0x08066404        0x4 ./build/hmc5883l.o
 .rodata.str1.4
                0x08066408       0x51 ./build/sensor_intf_mmc5983ma.o
                                 0xa6 (size before relaxing)
 .rodata.str1.4
                0x08066459        0x6 ./build/mmc5983ma.o
 *fill*         0x08066459        0x3 
 .rodata.str1.4
                0x0806645c        0xf ./build/spl06_001.o
 *fill*         0x0806646b        0x1 
 .rodata.str1.4
                0x0806646c      0x13f ./build/dfs.o
                                0x154 (size before relaxing)
 *fill*         0x080665ab        0x1 
 .rodata.name   0x080665ac       0x20 ./build/dfs.o
                0x080665ac                __fsym_list_fd_desc
                0x080665c4                __fsym_list_fd_name
 .rodata.str1.4
                0x080665cc        0xd ./build/select.o
 *fill*         0x080665d9        0x3 
 .rodata.str1.4
                0x080665dc      0x1b8 ./build/dfs_file.o
                                0x1cc (size before relaxing)
 .rodata.str1.4
                0x08066794       0x2b ./build/dfs_posix.o
 .rodata.str1.4
                0x08066794      0x1a2 ./build/dfs_fs.o
                                0x1b6 (size before relaxing)
 *fill*         0x08066936        0x2 
 .rodata.str1.4
                0x08066938       0x85 ./build/audio_pipe.o
                                 0x90 (size before relaxing)
 *fill*         0x080669bd        0x3 
 .rodata.str1.4
                0x080669c0       0x99 ./build/audio.o
                                 0x9d (size before relaxing)
 *fill*         0x08066a59        0x3 
 .rodata.str1.4
                0x08066a5c      0x2f5 ./build/can.o
                                0x341 (size before relaxing)
 *fill*         0x08066d51        0x3 
 .rodata.name   0x08066d54       0x20 ./build/can.o
                0x08066d54                __fsym_canstat_desc
                0x08066d6c                __fsym_canstat_name
 .rodata.str1.4
                0x08066d74       0x12 ./build/i2c_dev.o
                                 0x22 (size before relaxing)
 *fill*         0x08066d86        0x2 
 .rodata.str1.4
                0x08066d88       0xad ./build/i2c-bit-ops.o
                                 0xb1 (size before relaxing)
 *fill*         0x08066e35        0x3 
 .rodata.str1.4
                0x08066e38       0x6c ./build/i2c_core.o
                                 0x8b (size before relaxing)
 .rodata.str1.4
                0x08066ea4       0xab ./build/completion.o
                                 0xd7 (size before relaxing)
 .rodata.str1.4
                0x08066f4f       0x8f ./build/waitqueue.o
 *fill*         0x08066f4f        0x1 
 .rodata.str1.4
                0x08066f50       0x23 ./build/pipe.o
 *fill*         0x08066f73        0x1 
 .rodata.str1.4
                0x08066f74       0x19 ./build/ringbuffer.o
 *fill*         0x08066f8d        0x3 
 .rodata.str1.4
                0x08066f90       0x44 ./build/dataqueue.o
                                 0xf4 (size before relaxing)
 .rodata.str1.4
                0x08066fd4       0x50 ./build/workqueue.o
                                 0x64 (size before relaxing)
 .rodata.str1.4
                0x08067024       0xa6 ./build/ringblk_buf.o
                                 0xaa (size before relaxing)
 *fill*         0x080670ca        0x2 
 .rodata.str1.4
                0x080670cc      0x1f5 ./build/adc.o
                                0x1f9 (size before relaxing)
 *fill*         0x080672c1        0x3 
 .rodata.name   0x080672c4       0x14 ./build/adc.o
                0x080672c4                __fsym_adc_desc
                0x080672d4                __fsym_adc_name
 .rodata.str1.4
                0x080672d8       0x37 ./build/pin.o
 *fill*         0x0806730f        0x1 
 .rodata.str1.4
                0x08067310      0x10b ./build/sd.o
                                0x10f (size before relaxing)
 *fill*         0x0806741b        0x1 
 .rodata.str1.4
                0x0806741c      0x298 ./build/sdio.o
                                0x2a8 (size before relaxing)
 .rodata.str1.4
                0x080676b4       0xee ./build/mmc.o
                                0x146 (size before relaxing)
 *fill*         0x080677a2        0x2 
 .rodata.str1.4
                0x080677a4       0xcf ./build/mmcsd_core.o
                                 0xeb (size before relaxing)
 *fill*         0x08067873        0x1 
 .rodata.str1.4
                0x08067874       0xf7 ./build/block_dev.o
                                0x113 (size before relaxing)
 *fill*         0x0806796b        0x1 
 .rodata.str1.4
                0x0806796c      0x98d ./build/sensor_cmd.o
                                0x9a1 (size before relaxing)
 *fill*         0x080682f9        0x3 
 .rodata.name   0x080682fc       0xb0 ./build/sensor_cmd.o
                0x080682fc                __fsym_sensor_desc
                0x08068314                __fsym_sensor_name
                0x0806831c                __fsym_sensor_polling_desc
                0x08068340                __fsym_sensor_polling_name
                0x08068350                __fsym_sensor_int_desc
                0x08068374                __fsym_sensor_int_name
                0x08068380                __fsym_sensor_fifo_desc
                0x080683a0                __fsym_sensor_fifo_name
 .rodata.str1.4
                0x080683ac      0x140 ./build/sensor.o
                                0x154 (size before relaxing)
 .rodata.str1.4
                0x080684ec      0x11d ./build/serial_v2.o
                                0x17d (size before relaxing)
 *fill*         0x08068609        0x3 
 .rodata.str1.4
                0x0806860c       0x1d ./build/spi_core.o
                                 0x49 (size before relaxing)
 .rodata.str1.4
                0x08068629        0xf ./build/spi_msd.o
 *fill*         0x08068629        0x3 
 .rodata.str1.4
                0x0806862c       0x16 ./build/spi_dev.o
                                 0x63 (size before relaxing)
 *fill*         0x08068642        0x2 
 .rodata.str1.4
                0x08068644       0x9b ./build/winusb.o
                                 0xcf (size before relaxing)
 *fill*         0x080686df        0x1 
 .rodata.str1.4
                0x080686e0       0xa3 ./build/audio_mic.o
                                 0xcb (size before relaxing)
 *fill*         0x08068783        0x1 
 .rodata.str1.4
                0x08068784       0x57 ./build/audio_speaker.o
                                 0xd3 (size before relaxing)
 *fill*         0x080687db        0x1 
 .rodata.str1.4
                0x080687dc      0x561 ./build/usbdevice_core.o
                                0x629 (size before relaxing)
 *fill*         0x08068d3d        0x3 
 .rodata.str1.4
                0x08068d40       0xb1 ./build/usbdevice.o
                                 0xc5 (size before relaxing)
 *fill*         0x08068df1        0x3 
 .rodata.str1.4
                0x08068df4      0x687 ./build/cmd.o
                                0x6a7 (size before relaxing)
 *fill*         0x0806947b        0x1 
 .rodata.name   0x0806947c      0x1a2 ./build/cmd.o
                0x0806947c                __fsym_list_device_desc
                0x08069494                __fsym_list_device_name
                0x080694a0                __fsym_list_timer_desc
                0x080694b8                __fsym_list_timer_name
                0x080694c4                __fsym_list_mempool_desc
                0x080694e0                __fsym_list_mempool_name
                0x080694f0                __fsym_list_msgqueue_desc
                0x08069510                __fsym_list_msgqueue_name
                0x08069520                __fsym_list_mailbox_desc
                0x08069538                __fsym_list_mailbox_name
                0x08069548                __fsym_list_mutex_desc
                0x08069560                __fsym_list_mutex_name
                0x0806956c                __fsym_list_event_desc
                0x08069584                __fsym_list_event_name
                0x08069590                __fsym_list_sem_desc
                0x080695ac                __fsym_list_sem_name
                0x080695b8                __fsym_list_thread_desc
                0x080695c4                __fsym_list_thread_name
                0x080695d0                __fsym_version_desc
                0x080695f4                __fsym_version_name
                0x080695fc                __fsym_clear_desc
                0x08069618                __fsym_clear_name
 *fill*         0x0806961e        0x2 
 .rodata.str1.4
                0x08069620       0xa0 ./build/msh.o
                                 0xa8 (size before relaxing)
 .rodata.name   0x080696c0       0x6d ./build/msh.o
                0x080696c0                __fsym_free_desc
                0x080696e8                __fsym_free_name
                0x080696f0                __fsym_ps_desc
                0x0806970c                __fsym_ps_name
                0x08069710                __fsym_help_desc
                0x08069728                __fsym_help_name
 *fill*         0x0806972d        0x3 
 .rodata.str1.4
                0x08069730       0x85 ./build/shell.o
                                 0x91 (size before relaxing)
 *fill*         0x080697b5        0x3 
 .rodata.str1.4
                0x080697b8      0x2c5 ./build/cpuport.o
                                0x2ce (size before relaxing)
 *fill*         0x08069a7d        0x3 
 .rodata.str1.4
                0x08069a80       0x17 ./build/components.o
 *fill*         0x08069a97        0x1 
 .rodata.str1.4
                0x08069a98      0x106 ./build/timer.o
 *fill*         0x08069b9e        0x2 
 .rodata.str1.4
                0x08069ba0      0x19f ./build/thread.o
 *fill*         0x08069d3f        0x1 
 .rodata.str1.4
                0x08069d40       0x65 ./build/object.o
                                 0x91 (size before relaxing)
 *fill*         0x08069da5        0x3 
 .rodata.str1.4
                0x08069da8       0xac ./build/device.o
                                 0xbc (size before relaxing)
 .rodata.str1.4
                0x08069e54      0x43a ./build/ipc.o
                                0x4de (size before relaxing)
 *fill*         0x0806a28e        0x2 
 .rodata.str1.4
                0x0806a290      0x108 ./build/kservice.o
 .rodata.str1.4
                0x0806a398       0x51 ./build/scheduler.o
                                 0x65 (size before relaxing)
 *fill*         0x0806a3e9        0x3 
 .rodata.str1.4
                0x0806a3ec      0x111 ./build/mempool.o
                                0x14d (size before relaxing)
 *fill*         0x0806a4fd        0x3 
 .rodata.str1.4
                0x0806a500        0x8 ./build/idle.o
 .rodata.str1.4
                0x0806a508      0x40b ./build/mem.o
                                0x41b (size before relaxing)
 *fill*         0x0806a913        0x1 
 .rodata._global_impure_ptr
                0x0806a914        0x4 d:/software/work/gcc-arm-none-eabi-10.3-2021.07/bin/../lib/gcc/arm-none-eabi/10.3.1/../../../../arm-none-eabi/lib/thumb/v7e-m+dp/hard\libc.a(lib_a-impure.o)
                0x0806a914                _global_impure_ptr
 .rodata._ctype_
                0x0806a918      0x101 d:/software/work/gcc-arm-none-eabi-10.3-2021.07/bin/../lib/gcc/arm-none-eabi/10.3.1/../../../../arm-none-eabi/lib/thumb/v7e-m+dp/hard\libc.a(lib_a-ctype_.o)
                0x0806a918                _ctype_
                0x0806aa1c                . = ALIGN (0x4)
 *fill*         0x0806aa19        0x3 

.ARM.extab      0x0806aa1c        0x0
 *(.ARM.extab* .gnu.linkonce.armextab.*)
 .ARM.extab     0x0806aa1c        0x0 d:/software/work/gcc-arm-none-eabi-10.3-2021.07/bin/../lib/gcc/arm-none-eabi/10.3.1/../../../../arm-none-eabi/lib/thumb/v7e-m+dp/hard/crt0.o
 .ARM.extab     0x0806aa1c        0x0 d:/software/work/gcc-arm-none-eabi-10.3-2021.07/bin/../lib/gcc/arm-none-eabi/10.3.1/thumb/v7e-m+dp/hard\libgcc.a(_udivmoddi4.o)

.ARM            0x0806aa1c        0x8
                0x0806aa1c                __exidx_start = .
 *(.ARM.exidx*)
 .ARM.exidx     0x0806aa1c        0x8 d:/software/work/gcc-arm-none-eabi-10.3-2021.07/bin/../lib/gcc/arm-none-eabi/10.3.1/../../../../arm-none-eabi/lib/thumb/v7e-m+dp/hard/crt0.o
                                 0x10 (size before relaxing)
 .ARM.exidx     0x0806aa24        0x0 d:/software/work/gcc-arm-none-eabi-10.3-2021.07/bin/../lib/gcc/arm-none-eabi/10.3.1/thumb/v7e-m+dp/hard\libgcc.a(_udivmoddi4.o)
                                  0x8 (size before relaxing)
                0x0806aa24                __exidx_end = .

.rel.dyn        0x0806aa24        0x0
 .rel.iplt      0x0806aa24        0x0 d:/software/work/gcc-arm-none-eabi-10.3-2021.07/bin/../lib/gcc/arm-none-eabi/10.3.1/thumb/v7e-m+dp/hard/crtbegin.o

.preinit_array  0x0806aa24        0x0
                0x0806aa24                PROVIDE (__preinit_array_start = .)
 *(.preinit_array*)
                0x0806aa24                PROVIDE (__preinit_array_end = .)

.init_array     0x0806aa24        0x8
                0x0806aa24                PROVIDE (__init_array_start = .)
 *(SORT_BY_NAME(.init_array.*))
 .init_array.00000
                0x0806aa24        0x4 d:/software/work/gcc-arm-none-eabi-10.3-2021.07/bin/../lib/gcc/arm-none-eabi/10.3.1/../../../../arm-none-eabi/lib/thumb/v7e-m+dp/hard\libc.a(lib_a-__call_atexit.o)
 *(.init_array*)
 .init_array    0x0806aa28        0x4 d:/software/work/gcc-arm-none-eabi-10.3-2021.07/bin/../lib/gcc/arm-none-eabi/10.3.1/thumb/v7e-m+dp/hard/crtbegin.o
                0x0806aa2c                PROVIDE (__init_array_end = .)

.fini_array     0x0806aa2c        0x4
                0x0806aa2c                PROVIDE (__fini_array_start = .)
 *(SORT_BY_NAME(.fini_array.*))
 *(.fini_array*)
 .fini_array    0x0806aa2c        0x4 d:/software/work/gcc-arm-none-eabi-10.3-2021.07/bin/../lib/gcc/arm-none-eabi/10.3.1/thumb/v7e-m+dp/hard/crtbegin.o
                0x0806aa30                PROVIDE (__fini_array_end = .)
                0x0806aa30                _sidata = LOADADDR (.data)

.data           0x20000000      0xb4c load address 0x0806aa30
                0x20000000                . = ALIGN (0x4)
                0x20000000                _sdata = .
 *(.data)
 .data          0x20000000        0x0 d:/software/work/gcc-arm-none-eabi-10.3-2021.07/bin/../lib/gcc/arm-none-eabi/10.3.1/thumb/v7e-m+dp/hard/crti.o
 .data          0x20000000        0x4 d:/software/work/gcc-arm-none-eabi-10.3-2021.07/bin/../lib/gcc/arm-none-eabi/10.3.1/thumb/v7e-m+dp/hard/crtbegin.o
                0x20000000                __dso_handle
 .data          0x20000004        0x0 d:/software/work/gcc-arm-none-eabi-10.3-2021.07/bin/../lib/gcc/arm-none-eabi/10.3.1/../../../../arm-none-eabi/lib/thumb/v7e-m+dp/hard/crt0.o
 .data          0x20000004        0x0 ./build/drv_sdio.o
 .data          0x20000004       0x78 ./build/drv_usart_v2.o
 .data          0x2000007c        0x0 ./build/drv_soft_i2c.o
 .data          0x2000007c       0xc0 ./build/drv_gpio.o
 .data          0x2000013c       0x14 ./build/drv_spi.o
 .data          0x20000150        0x0 ./build/drv_adc.o
 .data          0x20000150        0x4 ./build/drv_common.o
 .data          0x20000154      0x230 ./build/drv_fdcan.o
 .data          0x20000384        0x0 ./build/drv_flash_h7.o
 .data          0x20000384        0x8 ./build/system_stm32h7xx.o
                0x20000384                SystemD2Clock
                0x20000388                SystemCoreClock
 .data          0x2000038c        0x0 ./build/stm32h7xx_ll_dma.o
 .data          0x2000038c        0x0 ./build/stm32h7xx_hal_cryp.o
 .data          0x2000038c        0x0 ./build/stm32h7xx_hal_hrtim.o
 .data          0x2000038c        0x8 ./build/stm32h7xx_hal.o
                0x2000038c                uwTickFreq
                0x20000390                uwTickPrio
 .data          0x20000394        0x0 ./build/stm32h7xx_hal_rcc_ex.o
 .data          0x20000394        0x0 ./build/stm32h7xx_hal_fdcan.o
 .data          0x20000394        0x0 ./build/stm32h7xx_hal_sd_ex.o
 .data          0x20000394        0x0 ./build/stm32h7xx_hal_hcd.o
 .data          0x20000394        0x0 ./build/stm32h7xx_hal_tim.o
 .data          0x20000394        0x0 ./build/stm32h7xx_hal_pcd.o
 .data          0x20000394        0x0 ./build/stm32h7xx_hal_dcmi.o
 .data          0x20000394        0x0 ./build/stm32h7xx_hal_usart.o
 .data          0x20000394        0x0 ./build/stm32h7xx_hal_crc.o
 .data          0x20000394        0x0 ./build/stm32h7xx_hal_opamp_ex.o
 .data          0x20000394        0x0 ./build/stm32h7xx_hal_dac.o
 .data          0x20000394        0x0 ./build/stm32h7xx_hal_pwr_ex.o
 .data          0x20000394        0x0 ./build/stm32h7xx_hal_cordic.o
 .data          0x20000394        0x0 ./build/stm32h7xx_hal_dsi.o
 .data          0x20000394        0x0 ./build/stm32h7xx_ll_adc.o
 .data          0x20000394        0x0 ./build/stm32h7xx_ll_swpmi.o
 .data          0x20000394        0x0 ./build/stm32h7xx_hal_msp_template.o
 .data          0x20000394        0x0 ./build/stm32h7xx_hal_opamp.o
 .data          0x20000394        0x0 ./build/stm32h7xx_hal_rcc.o
 .data          0x20000394        0x0 ./build/stm32h7xx_hal_exti.o
 .data          0x20000394        0x0 ./build/stm32h7xx_hal_sd.o
 .data          0x20000394        0x0 ./build/stm32h7xx_ll_lpuart.o
 .data          0x20000394        0x0 ./build/stm32h7xx_hal_eth.o
 .data          0x20000394        0x0 ./build/stm32h7xx_hal_i2s_ex.o
 .data          0x20000394        0x0 ./build/stm32h7xx_hal_dma2d.o
 .data          0x20000394        0x0 ./build/stm32h7xx_hal_i2c.o
 .data          0x20000394        0x0 ./build/stm32h7xx_hal_iwdg.o
 .data          0x20000394        0x0 ./build/stm32h7xx_hal_flash.o
 .data          0x20000394        0x0 ./build/stm32h7xx_hal_smartcard.o
 .data          0x20000394        0x0 ./build/stm32h7xx_hal_pwr.o
 .data          0x20000394        0x0 ./build/stm32h7xx_hal_rtc.o
 .data          0x20000394        0x0 ./build/stm32h7xx_hal_ramecc.o
 .data          0x20000394        0x0 ./build/stm32h7xx_ll_usart.o
 .data          0x20000394        0x0 ./build/stm32h7xx_hal_spdifrx.o
 .data          0x20000394        0x0 ./build/stm32h7xx_ll_crc.o
 .data          0x20000394        0x0 ./build/stm32h7xx_hal_mdios.o
 .data          0x20000394        0x0 ./build/stm32h7xx_hal_spi_ex.o
 .data          0x20000394        0x0 ./build/stm32h7xx_ll_cordic.o
 .data          0x20000394        0x0 ./build/stm32h7xx_hal_uart_ex.o
 .data          0x20000394        0x0 ./build/stm32h7xx_hal_dfsdm.o
 .data          0x20000394        0x0 ./build/stm32h7xx_hal_cortex.o
 .data          0x20000394        0x0 ./build/stm32h7xx_hal_hsem.o
 .data          0x20000394        0x0 ./build/stm32h7xx_ll_fmc.o
 .data          0x20000394        0x0 ./build/stm32h7xx_hal_rng_ex.o
 .data          0x20000394        0x0 ./build/stm32h7xx_hal_smartcard_ex.o
 .data          0x20000394        0x0 ./build/stm32h7xx_ll_crs.o
 .data          0x20000394        0x0 ./build/stm32h7xx_hal_lptim.o
 .data          0x20000394        0x0 ./build/stm32h7xx_ll_i2c.o
 .data          0x20000394        0x0 ./build/stm32h7xx_hal_comp.o
 .data          0x20000394        0x0 ./build/stm32h7xx_ll_gpio.o
 .data          0x20000394        0x0 ./build/stm32h7xx_hal_mmc.o
 .data          0x20000394        0x0 ./build/stm32h7xx_hal_spi.o
 .data          0x20000394        0x0 ./build/stm32h7xx_ll_rtc.o
 .data          0x20000394        0x0 ./build/stm32h7xx_hal_uart.o
 .data          0x20000394        0x0 ./build/stm32h7xx_hal_sdram.o
 .data          0x20000394        0x0 ./build/stm32h7xx_hal_wwdg.o
 .data          0x20000394        0x0 ./build/stm32h7xx_ll_pwr.o
 .data          0x20000394        0x0 ./build/stm32h7xx_hal_smbus_ex.o
 .data          0x20000394        0x0 ./build/stm32h7xx_hal_pssi.o
 .data          0x20000394        0x0 ./build/stm32h7xx_hal_rng.o
 .data          0x20000394        0x0 ./build/stm32h7xx_hal_flash_ex.o
 .data          0x20000394        0x0 ./build/stm32h7xx_ll_rcc.o
 .data          0x20000394        0x0 ./build/stm32h7xx_ll_usb.o
 .data          0x20000394        0x0 ./build/stm32h7xx_hal_irda.o
 .data          0x20000394        0x0 ./build/stm32h7xx_hal_nor.o
 .data          0x20000394        0x0 ./build/stm32h7xx_ll_exti.o
 .data          0x20000394        0x0 ./build/stm32h7xx_hal_smbus.o
 .data          0x20000394        0x0 ./build/stm32h7xx_ll_comp.o
 .data          0x20000394        0x0 ./build/stm32h7xx_hal_cec.o
 .data          0x20000394        0x0 ./build/stm32h7xx_ll_spi.o
 .data          0x20000394        0x0 ./build/stm32h7xx_ll_lptim.o
 .data          0x20000394        0x0 ./build/stm32h7xx_hal_dfsdm_ex.o
 .data          0x20000394        0x0 ./build/stm32h7xx_hal_dts.o
 .data          0x20000394        0x0 ./build/stm32h7xx_ll_hrtim.o
 .data          0x20000394        0x0 ./build/stm32h7xx_hal_dac_ex.o
 .data          0x20000394        0x0 ./build/stm32h7xx_ll_tim.o
 .data          0x20000394        0x0 ./build/stm32h7xx_hal_fmac.o
 .data          0x20000394        0x0 ./build/stm32h7xx_hal_i2c_ex.o
 .data          0x20000394        0x0 ./build/stm32h7xx_ll_bdma.o
 .data          0x20000394        0x0 ./build/stm32h7xx_hal_sram.o
 .data          0x20000394        0x0 ./build/stm32h7xx_hal_dma_ex.o
 .data          0x20000394        0x0 ./build/stm32h7xx_ll_rng.o
 .data          0x20000394        0x0 ./build/stm32h7xx_hal_ltdc_ex.o
 .data          0x20000394        0x0 ./build/stm32h7xx_hal_swpmi.o
 .data          0x20000394        0x0 ./build/stm32h7xx_hal_hash_ex.o
 .data          0x20000394        0x0 ./build/stm32h7xx_hal_qspi.o
 .data          0x20000394        0x0 ./build/stm32h7xx_hal_nand.o
 .data          0x20000394        0x0 ./build/stm32h7xx_hal_i2s.o
 .data          0x20000394        0x0 ./build/stm32h7xx_hal_sai_ex.o
 .data          0x20000394        0x0 ./build/stm32h7xx_ll_sdmmc.o
 .data          0x20000394        0x0 ./build/stm32h7xx_hal_ltdc.o
 .data          0x20000394        0x0 ./build/stm32h7xx_hal_dma.o
 .data          0x20000394        0x0 ./build/stm32h7xx_hal_mdma.o
 .data          0x20000394        0x0 ./build/stm32h7xx_hal_mmc_ex.o
 .data          0x20000394        0x0 ./build/stm32h7xx_hal_adc_ex.o
 .data          0x20000394        0x0 ./build/stm32h7xx_hal_tim_ex.o
 .data          0x20000394        0x0 ./build/stm32h7xx_hal_eth_ex.o
 .data          0x20000394        0x0 ./build/stm32h7xx_ll_fmac.o
 .data          0x20000394        0x0 ./build/stm32h7xx_ll_delayblock.o
 .data          0x20000394        0x0 ./build/stm32h7xx_ll_dma2d.o
 .data          0x20000394        0x0 ./build/stm32h7xx_hal_hash.o
 .data          0x20000394        0x0 ./build/stm32h7xx_ll_mdma.o
 .data          0x20000394        0x0 ./build/stm32h7xx_hal_cryp_ex.o
 .data          0x20000394        0x0 ./build/stm32h7xx_hal_sai.o
 .data          0x20000394        0x0 ./build/stm32h7xx_hal_gfxmmu.o
 .data          0x20000394        0x0 ./build/stm32h7xx_ll_utils.o
 .data          0x20000394        0x0 ./build/stm32h7xx_hal_gpio.o
 .data          0x20000394        0x0 ./build/stm32h7xx_hal_jpeg.o
 .data          0x20000394        0x0 ./build/stm32h7xx_hal_ospi.o
 .data          0x20000394        0x0 ./build/stm32h7xx_ll_opamp.o
 .data          0x20000394        0x0 ./build/stm32h7xx_hal_adc.o
 .data          0x20000394        0x0 ./build/stm32h7xx_hal_pcd_ex.o
 .data          0x20000394        0x0 ./build/stm32h7xx_ll_dac.o
 .data          0x20000394        0x0 ./build/stm32h7xx_hal_usart_ex.o
 .data          0x20000394        0x0 ./build/stm32h7xx_hal_crc_ex.o
 .data          0x20000394        0x0 ./build/stm32h7xx_hal_rtc_ex.o
 .data          0x20000394        0x0 ./build/stm32h7xx_hal_otfdec.o
 .data          0x20000394        0x0 ./build/main.o
 .data          0x20000394        0x0 ./build/stm32h7xx_it.o
 .data          0x20000394        0x0 ./build/stm32h7xx_hal_msp.o
 .data          0x20000394        0x0 ./build/bmi088_sample.o
 .data          0x20000394        0x8 ./build/sensor_intf_bmi088.o
 .data          0x2000039c        0x0 ./build/bmi088.o
 .data          0x2000039c       0x90 ./build/board.o
 .data          0x2000042c        0x8 ./build/sensor_intf_hmc5883l.o
 .data          0x20000434        0x0 ./build/hmc5883l.o
 .data          0x20000434        0x8 ./build/sensor_intf_mmc5983ma.o
 .data          0x2000043c        0x0 ./build/mmc5983ma.o
 .data          0x2000043c        0x0 ./build/fport.o
 .data          0x2000043c        0x8 ./build/spl06_001.o
 .data          0x20000444        0x0 ./build/dfs.o
 .data          0x20000444        0x0 ./build/select.o
 .data          0x20000444        0x0 ./build/dfs_file.o
 .data          0x20000444        0x0 ./build/poll.o
 .data          0x20000444        0x0 ./build/dfs_posix.o
 .data          0x20000444        0x0 ./build/dfs_fs.o
 .data          0x20000444        0x0 ./build/audio_pipe.o
 .data          0x20000444        0x0 ./build/audio.o
 .data          0x20000444        0x0 ./build/can.o
 .data          0x20000444        0x0 ./build/i2c_dev.o
 .data          0x20000444        0x0 ./build/i2c-bit-ops.o
 .data          0x20000444        0x0 ./build/i2c_core.o
 .data          0x20000444        0x0 ./build/completion.o
 .data          0x20000444        0x0 ./build/waitqueue.o
 .data          0x20000444        0x0 ./build/pipe.o
 .data          0x20000444        0x0 ./build/ringbuffer.o
 .data          0x20000444        0x0 ./build/dataqueue.o
 .data          0x20000444        0x0 ./build/workqueue.o
 .data          0x20000444        0x0 ./build/ringblk_buf.o
 .data          0x20000444        0x0 ./build/adc.o
 .data          0x20000444        0x0 ./build/pin.o
 .data          0x20000444        0x0 ./build/sd.o
 .data          0x20000444       0x10 ./build/sdio.o
 .data          0x20000454        0x0 ./build/mmc.o
 .data          0x20000454        0x0 ./build/mmcsd_core.o
 .data          0x20000454        0x8 ./build/block_dev.o
 .data          0x2000045c        0x0 ./build/sensor_cmd.o
 .data          0x2000045c        0x8 ./build/sensor.o
 .data          0x20000464        0x0 ./build/serial_v2.o
 .data          0x20000464        0x0 ./build/spi_core.o
 .data          0x20000464        0x0 ./build/spi_msd.o
 .data          0x20000464        0x0 ./build/spi_dev.o
 .data          0x20000464       0x90 ./build/winusb.o
                0x20000464                winusb_func_comp_id_desc
                0x20000484                winusb_proerty
                0x200004c8                _winusb_desc
                0x200004e8                winusb_class
 .data          0x200004f4       0x94 ./build/audio_mic.o
                0x2000057c                uac_class
 .data          0x20000588        0x0 ./build/cdc_vcom.o
 .data          0x20000588        0x0 ./build/hid.o
 .data          0x20000588        0x0 ./build/mstorage.o
 .data          0x20000588       0x94 ./build/audio_speaker.o
 .data          0x2000061c        0x0 ./build/ecm.o
 .data          0x2000061c        0x0 ./build/rndis.o
 .data          0x2000061c        0x0 ./build/usbdevice_core.o
 .data          0x2000061c       0x52 ./build/usbdevice.o
                0x2000061c                usb_comp_id_desc
 .data          0x2000066e        0x0 ./build/cmd.o
 .data          0x2000066e        0x0 ./build/msh.o
 .data          0x2000066e        0x0 ./build/shell.o
 .data          0x2000066e        0x0 ./build/msh_file.o
 .data          0x2000066e        0x0 ./build/cpuport.o
 .data          0x2000066e        0x0 ./build/components.o
 .data          0x2000066e        0x0 ./build/timer.o
 .data          0x2000066e        0x0 ./build/thread.o
 .data          0x2000066e        0x0 ./build/slab.o
 .data          0x2000066e        0x0 ./build/memheap.o
 *fill*         0x2000066e        0x2 
 .data          0x20000670       0xa0 ./build/object.o
 .data          0x20000710        0x0 ./build/signal.o
 .data          0x20000710        0x0 ./build/cpu.o
 .data          0x20000710        0x0 ./build/device.o
 .data          0x20000710        0x0 ./build/ipc.o
 .data          0x20000710        0x0 ./build/kservice.o
 .data          0x20000710        0x0 ./build/clock.o
 .data          0x20000710        0x0 ./build/scheduler.o
 .data          0x20000710        0x0 ./build/irq.o
 .data          0x20000710        0x0 ./build/mempool.o
 .data          0x20000710        0x8 ./build/idle.o
 .data          0x20000718        0x0 ./build/mem.o
 .data          0x20000718        0x0 ./build/startup_stm32h750xx.o
 .data          0x20000718        0x0 ./build/context_gcc.o
 .data          0x20000718        0x0 d:/software/work/gcc-arm-none-eabi-10.3-2021.07/bin/../lib/gcc/arm-none-eabi/10.3.1/thumb/v7e-m+dp/hard\libgcc.a(_aeabi_uldivmod.o)
 .data          0x20000718        0x0 d:/software/work/gcc-arm-none-eabi-10.3-2021.07/bin/../lib/gcc/arm-none-eabi/10.3.1/thumb/v7e-m+dp/hard\libgcc.a(_udivmoddi4.o)
 .data          0x20000718        0x0 d:/software/work/gcc-arm-none-eabi-10.3-2021.07/bin/../lib/gcc/arm-none-eabi/10.3.1/thumb/v7e-m+dp/hard\libgcc.a(_dvmd_tls.o)
 .data          0x20000718        0x0 d:/software/work/gcc-arm-none-eabi-10.3-2021.07/bin/../lib/gcc/arm-none-eabi/10.3.1/../../../../arm-none-eabi/lib/thumb/v7e-m+dp/hard\libc.a(lib_a-atoi.o)
 .data          0x20000718        0x0 d:/software/work/gcc-arm-none-eabi-10.3-2021.07/bin/../lib/gcc/arm-none-eabi/10.3.1/../../../../arm-none-eabi/lib/thumb/v7e-m+dp/hard\libc.a(lib_a-exit.o)
 .data          0x20000718        0x0 d:/software/work/gcc-arm-none-eabi-10.3-2021.07/bin/../lib/gcc/arm-none-eabi/10.3.1/../../../../arm-none-eabi/lib/thumb/v7e-m+dp/hard\libc.a(lib_a-impure.o)
 .data          0x20000718        0x0 d:/software/work/gcc-arm-none-eabi-10.3-2021.07/bin/../lib/gcc/arm-none-eabi/10.3.1/../../../../arm-none-eabi/lib/thumb/v7e-m+dp/hard\libc.a(lib_a-init.o)
 .data          0x20000718        0x0 d:/software/work/gcc-arm-none-eabi-10.3-2021.07/bin/../lib/gcc/arm-none-eabi/10.3.1/../../../../arm-none-eabi/lib/thumb/v7e-m+dp/hard\libc.a(lib_a-memcmp.o)
 .data          0x20000718        0x0 d:/software/work/gcc-arm-none-eabi-10.3-2021.07/bin/../lib/gcc/arm-none-eabi/10.3.1/../../../../arm-none-eabi/lib/thumb/v7e-m+dp/hard\libc.a(lib_a-memcpy.o)
 .data          0x20000718        0x0 d:/software/work/gcc-arm-none-eabi-10.3-2021.07/bin/../lib/gcc/arm-none-eabi/10.3.1/../../../../arm-none-eabi/lib/thumb/v7e-m+dp/hard\libc.a(lib_a-memset.o)
 .data          0x20000718        0x0 d:/software/work/gcc-arm-none-eabi-10.3-2021.07/bin/../lib/gcc/arm-none-eabi/10.3.1/../../../../arm-none-eabi/lib/thumb/v7e-m+dp/hard\libc.a(lib_a-strcat.o)
 .data          0x20000718        0x0 d:/software/work/gcc-arm-none-eabi-10.3-2021.07/bin/../lib/gcc/arm-none-eabi/10.3.1/../../../../arm-none-eabi/lib/thumb/v7e-m+dp/hard\libc.a(lib_a-strcmp.o)
 .data          0x20000718        0x0 d:/software/work/gcc-arm-none-eabi-10.3-2021.07/bin/../lib/gcc/arm-none-eabi/10.3.1/../../../../arm-none-eabi/lib/thumb/v7e-m+dp/hard\libc.a(lib_a-strcpy.o)
 .data          0x20000718        0x0 d:/software/work/gcc-arm-none-eabi-10.3-2021.07/bin/../lib/gcc/arm-none-eabi/10.3.1/../../../../arm-none-eabi/lib/thumb/v7e-m+dp/hard\libc.a(lib_a-strlen.o)
 .data          0x20000718        0x0 d:/software/work/gcc-arm-none-eabi-10.3-2021.07/bin/../lib/gcc/arm-none-eabi/10.3.1/../../../../arm-none-eabi/lib/thumb/v7e-m+dp/hard\libc.a(lib_a-strncmp.o)
 .data          0x20000718        0x0 d:/software/work/gcc-arm-none-eabi-10.3-2021.07/bin/../lib/gcc/arm-none-eabi/10.3.1/../../../../arm-none-eabi/lib/thumb/v7e-m+dp/hard\libc.a(lib_a-strncpy.o)
 .data          0x20000718        0x0 d:/software/work/gcc-arm-none-eabi-10.3-2021.07/bin/../lib/gcc/arm-none-eabi/10.3.1/../../../../arm-none-eabi/lib/thumb/v7e-m+dp/hard\libc.a(lib_a-strrchr.o)
 .data          0x20000718        0x0 d:/software/work/gcc-arm-none-eabi-10.3-2021.07/bin/../lib/gcc/arm-none-eabi/10.3.1/../../../../arm-none-eabi/lib/thumb/v7e-m+dp/hard\libc.a(lib_a-strtol.o)
 .data          0x20000718        0x0 d:/software/work/gcc-arm-none-eabi-10.3-2021.07/bin/../lib/gcc/arm-none-eabi/10.3.1/../../../../arm-none-eabi/lib/thumb/v7e-m+dp/hard\libc.a(lib_a-__call_atexit.o)
 .data          0x20000718        0x0 d:/software/work/gcc-arm-none-eabi-10.3-2021.07/bin/../lib/gcc/arm-none-eabi/10.3.1/../../../../arm-none-eabi/lib/thumb/v7e-m+dp/hard\libc.a(lib_a-atexit.o)
 .data          0x20000718        0x0 d:/software/work/gcc-arm-none-eabi-10.3-2021.07/bin/../lib/gcc/arm-none-eabi/10.3.1/../../../../arm-none-eabi/lib/thumb/v7e-m+dp/hard\libc.a(lib_a-ctype_.o)
 .data          0x20000718        0x0 d:/software/work/gcc-arm-none-eabi-10.3-2021.07/bin/../lib/gcc/arm-none-eabi/10.3.1/../../../../arm-none-eabi/lib/thumb/v7e-m+dp/hard\libc.a(lib_a-errno.o)
 .data          0x20000718        0x0 d:/software/work/gcc-arm-none-eabi-10.3-2021.07/bin/../lib/gcc/arm-none-eabi/10.3.1/../../../../arm-none-eabi/lib/thumb/v7e-m+dp/hard\libc.a(lib_a-fini.o)
 .data          0x20000718        0x0 d:/software/work/gcc-arm-none-eabi-10.3-2021.07/bin/../lib/gcc/arm-none-eabi/10.3.1/../../../../arm-none-eabi/lib/thumb/v7e-m+dp/hard\libc.a(lib_a-lock.o)
 .data          0x20000718        0x0 d:/software/work/gcc-arm-none-eabi-10.3-2021.07/bin/../lib/gcc/arm-none-eabi/10.3.1/../../../../arm-none-eabi/lib/thumb/v7e-m+dp/hard\libc.a(lib_a-strchr.o)
 .data          0x20000718        0x0 d:/software/work/gcc-arm-none-eabi-10.3-2021.07/bin/../lib/gcc/arm-none-eabi/10.3.1/../../../../arm-none-eabi/lib/thumb/v7e-m+dp/hard\libc.a(lib_a-__atexit.o)
 .data          0x20000718        0x0 d:/software/work/gcc-arm-none-eabi-10.3-2021.07/bin/../lib/gcc/arm-none-eabi/10.3.1/thumb/v7e-m+dp/hard/crtend.o
 .data          0x20000718        0x0 d:/software/work/gcc-arm-none-eabi-10.3-2021.07/bin/../lib/gcc/arm-none-eabi/10.3.1/thumb/v7e-m+dp/hard/crtn.o
 *(.data*)
 .data._impure_ptr
                0x20000718        0x4 d:/software/work/gcc-arm-none-eabi-10.3-2021.07/bin/../lib/gcc/arm-none-eabi/10.3.1/../../../../arm-none-eabi/lib/thumb/v7e-m+dp/hard\libc.a(lib_a-impure.o)
                0x20000718                _impure_ptr
 *fill*         0x2000071c        0x4 
 .data.impure_data
                0x20000720      0x428 d:/software/work/gcc-arm-none-eabi-10.3-2021.07/bin/../lib/gcc/arm-none-eabi/10.3.1/../../../../arm-none-eabi/lib/thumb/v7e-m+dp/hard\libc.a(lib_a-impure.o)
 .data.__atexit_recursive_mutex
                0x20000b48        0x4 d:/software/work/gcc-arm-none-eabi-10.3-2021.07/bin/../lib/gcc/arm-none-eabi/10.3.1/../../../../arm-none-eabi/lib/thumb/v7e-m+dp/hard\libc.a(lib_a-__call_atexit.o)
                0x20000b48                __atexit_recursive_mutex
                0x20000b4c                . = ALIGN (0x4)
                0x20000b4c                _edata = .

.igot.plt       0x20000b4c        0x0 load address 0x0806b57c
 .igot.plt      0x20000b4c        0x0 d:/software/work/gcc-arm-none-eabi-10.3-2021.07/bin/../lib/gcc/arm-none-eabi/10.3.1/thumb/v7e-m+dp/hard/crtbegin.o
                0x20000b4c                . = ALIGN (0x4)

.bss            0x20000b60     0x308c load address 0x0806b57c
                0x20000b60                _sbss = .
                0x20000b60                __bss_start__ = _sbss
 *(.bss)
 .bss           0x20000b60        0x0 d:/software/work/gcc-arm-none-eabi-10.3-2021.07/bin/../lib/gcc/arm-none-eabi/10.3.1/thumb/v7e-m+dp/hard/crti.o
 .bss           0x20000b60       0x1c d:/software/work/gcc-arm-none-eabi-10.3-2021.07/bin/../lib/gcc/arm-none-eabi/10.3.1/thumb/v7e-m+dp/hard/crtbegin.o
 .bss           0x20000b7c        0x0 d:/software/work/gcc-arm-none-eabi-10.3-2021.07/bin/../lib/gcc/arm-none-eabi/10.3.1/../../../../arm-none-eabi/lib/thumb/v7e-m+dp/hard/crt0.o
 *fill*         0x20000b7c        0x4 
 .bss           0x20000b80     0x1020 ./build/drv_sdio.o
 .bss           0x20001ba0      0xb88 ./build/drv_usart_v2.o
 .bss           0x20002728       0xa8 ./build/drv_soft_i2c.o
 .bss           0x200027d0        0x4 ./build/drv_gpio.o
 .bss           0x200027d4      0x204 ./build/drv_spi.o
 .bss           0x200029d8        0x0 ./build/drv_adc.o
 .bss           0x200029d8        0x0 ./build/drv_common.o
 .bss           0x200029d8        0x0 ./build/drv_fdcan.o
 .bss           0x200029d8        0x0 ./build/drv_flash_h7.o
 .bss           0x200029d8        0x0 ./build/system_stm32h7xx.o
 .bss           0x200029d8        0x0 ./build/stm32h7xx_ll_dma.o
 .bss           0x200029d8        0x0 ./build/stm32h7xx_hal_cryp.o
 .bss           0x200029d8        0x0 ./build/stm32h7xx_hal_hrtim.o
 .bss           0x200029d8        0x4 ./build/stm32h7xx_hal.o
                0x200029d8                uwTick
 .bss           0x200029dc        0x0 ./build/stm32h7xx_hal_rcc_ex.o
 .bss           0x200029dc        0x0 ./build/stm32h7xx_hal_fdcan.o
 .bss           0x200029dc        0x0 ./build/stm32h7xx_hal_sd_ex.o
 .bss           0x200029dc        0x0 ./build/stm32h7xx_hal_hcd.o
 .bss           0x200029dc        0x0 ./build/stm32h7xx_hal_tim.o
 .bss           0x200029dc        0x0 ./build/stm32h7xx_hal_pcd.o
 .bss           0x200029dc        0x0 ./build/stm32h7xx_hal_dcmi.o
 .bss           0x200029dc        0x0 ./build/stm32h7xx_hal_usart.o
 .bss           0x200029dc        0x0 ./build/stm32h7xx_hal_crc.o
 .bss           0x200029dc        0x0 ./build/stm32h7xx_hal_opamp_ex.o
 .bss           0x200029dc        0x0 ./build/stm32h7xx_hal_dac.o
 .bss           0x200029dc        0x0 ./build/stm32h7xx_hal_pwr_ex.o
 .bss           0x200029dc        0x0 ./build/stm32h7xx_hal_cordic.o
 .bss           0x200029dc        0x0 ./build/stm32h7xx_hal_dsi.o
 .bss           0x200029dc        0x0 ./build/stm32h7xx_ll_adc.o
 .bss           0x200029dc        0x0 ./build/stm32h7xx_ll_swpmi.o
 .bss           0x200029dc        0x0 ./build/stm32h7xx_hal_msp_template.o
 .bss           0x200029dc        0x0 ./build/stm32h7xx_hal_opamp.o
 .bss           0x200029dc        0x0 ./build/stm32h7xx_hal_rcc.o
 .bss           0x200029dc        0x0 ./build/stm32h7xx_hal_exti.o
 .bss           0x200029dc        0x0 ./build/stm32h7xx_hal_sd.o
 .bss           0x200029dc        0x0 ./build/stm32h7xx_ll_lpuart.o
 .bss           0x200029dc        0x0 ./build/stm32h7xx_hal_eth.o
 .bss           0x200029dc        0x0 ./build/stm32h7xx_hal_i2s_ex.o
 .bss           0x200029dc        0x0 ./build/stm32h7xx_hal_dma2d.o
 .bss           0x200029dc        0x0 ./build/stm32h7xx_hal_i2c.o
 .bss           0x200029dc        0x0 ./build/stm32h7xx_hal_iwdg.o
 .bss           0x200029dc       0x1c ./build/stm32h7xx_hal_flash.o
                0x200029dc                pFlash
 .bss           0x200029f8        0x0 ./build/stm32h7xx_hal_smartcard.o
 .bss           0x200029f8        0x0 ./build/stm32h7xx_hal_pwr.o
 .bss           0x200029f8        0x0 ./build/stm32h7xx_hal_rtc.o
 .bss           0x200029f8        0x0 ./build/stm32h7xx_hal_ramecc.o
 .bss           0x200029f8        0x0 ./build/stm32h7xx_ll_usart.o
 .bss           0x200029f8        0x0 ./build/stm32h7xx_hal_spdifrx.o
 .bss           0x200029f8        0x0 ./build/stm32h7xx_ll_crc.o
 .bss           0x200029f8        0x0 ./build/stm32h7xx_hal_mdios.o
 .bss           0x200029f8        0x0 ./build/stm32h7xx_hal_spi_ex.o
 .bss           0x200029f8        0x0 ./build/stm32h7xx_ll_cordic.o
 .bss           0x200029f8        0x0 ./build/stm32h7xx_hal_uart_ex.o
 .bss           0x200029f8       0x24 ./build/stm32h7xx_hal_dfsdm.o
 .bss           0x20002a1c        0x0 ./build/stm32h7xx_hal_cortex.o
 .bss           0x20002a1c        0x0 ./build/stm32h7xx_hal_hsem.o
 .bss           0x20002a1c        0x0 ./build/stm32h7xx_ll_fmc.o
 .bss           0x20002a1c        0x0 ./build/stm32h7xx_hal_rng_ex.o
 .bss           0x20002a1c        0x0 ./build/stm32h7xx_hal_smartcard_ex.o
 .bss           0x20002a1c        0x0 ./build/stm32h7xx_ll_crs.o
 .bss           0x20002a1c        0x0 ./build/stm32h7xx_hal_lptim.o
 .bss           0x20002a1c        0x0 ./build/stm32h7xx_ll_i2c.o
 .bss           0x20002a1c        0x0 ./build/stm32h7xx_hal_comp.o
 .bss           0x20002a1c        0x0 ./build/stm32h7xx_ll_gpio.o
 .bss           0x20002a1c        0x0 ./build/stm32h7xx_hal_mmc.o
 .bss           0x20002a1c        0x0 ./build/stm32h7xx_hal_spi.o
 .bss           0x20002a1c        0x0 ./build/stm32h7xx_ll_rtc.o
 .bss           0x20002a1c        0x0 ./build/stm32h7xx_hal_uart.o
 .bss           0x20002a1c        0x0 ./build/stm32h7xx_hal_sdram.o
 .bss           0x20002a1c        0x0 ./build/stm32h7xx_hal_wwdg.o
 .bss           0x20002a1c        0x0 ./build/stm32h7xx_ll_pwr.o
 .bss           0x20002a1c        0x0 ./build/stm32h7xx_hal_smbus_ex.o
 .bss           0x20002a1c        0x0 ./build/stm32h7xx_hal_pssi.o
 .bss           0x20002a1c        0x0 ./build/stm32h7xx_hal_rng.o
 .bss           0x20002a1c        0x0 ./build/stm32h7xx_hal_flash_ex.o
 .bss           0x20002a1c        0x0 ./build/stm32h7xx_ll_rcc.o
 .bss           0x20002a1c        0x0 ./build/stm32h7xx_ll_usb.o
 .bss           0x20002a1c        0x0 ./build/stm32h7xx_hal_irda.o
 .bss           0x20002a1c        0x4 ./build/stm32h7xx_hal_nor.o
 .bss           0x20002a20        0x0 ./build/stm32h7xx_ll_exti.o
 .bss           0x20002a20        0x0 ./build/stm32h7xx_hal_smbus.o
 .bss           0x20002a20        0x0 ./build/stm32h7xx_ll_comp.o
 .bss           0x20002a20        0x0 ./build/stm32h7xx_hal_cec.o
 .bss           0x20002a20        0x0 ./build/stm32h7xx_ll_spi.o
 .bss           0x20002a20        0x0 ./build/stm32h7xx_ll_lptim.o
 .bss           0x20002a20        0x0 ./build/stm32h7xx_hal_dfsdm_ex.o
 .bss           0x20002a20        0x0 ./build/stm32h7xx_hal_dts.o
 .bss           0x20002a20        0x0 ./build/stm32h7xx_ll_hrtim.o
 .bss           0x20002a20        0x0 ./build/stm32h7xx_hal_dac_ex.o
 .bss           0x20002a20        0x0 ./build/stm32h7xx_ll_tim.o
 .bss           0x20002a20        0x0 ./build/stm32h7xx_hal_fmac.o
 .bss           0x20002a20        0x0 ./build/stm32h7xx_hal_i2c_ex.o
 .bss           0x20002a20        0x0 ./build/stm32h7xx_ll_bdma.o
 .bss           0x20002a20        0x0 ./build/stm32h7xx_hal_sram.o
 .bss           0x20002a20        0x0 ./build/stm32h7xx_hal_dma_ex.o
 .bss           0x20002a20        0x0 ./build/stm32h7xx_ll_rng.o
 .bss           0x20002a20        0x0 ./build/stm32h7xx_hal_ltdc_ex.o
 .bss           0x20002a20        0x0 ./build/stm32h7xx_hal_swpmi.o
 .bss           0x20002a20        0x0 ./build/stm32h7xx_hal_hash_ex.o
 .bss           0x20002a20        0x0 ./build/stm32h7xx_hal_qspi.o
 .bss           0x20002a20        0x0 ./build/stm32h7xx_hal_nand.o
 .bss           0x20002a20        0x0 ./build/stm32h7xx_hal_i2s.o
 .bss           0x20002a20        0x0 ./build/stm32h7xx_hal_sai_ex.o
 .bss           0x20002a20        0x0 ./build/stm32h7xx_ll_sdmmc.o
 .bss           0x20002a20        0x0 ./build/stm32h7xx_hal_ltdc.o
 .bss           0x20002a20        0x0 ./build/stm32h7xx_hal_dma.o
 .bss           0x20002a20        0x0 ./build/stm32h7xx_hal_mdma.o
 .bss           0x20002a20        0x0 ./build/stm32h7xx_hal_mmc_ex.o
 .bss           0x20002a20        0x0 ./build/stm32h7xx_hal_adc_ex.o
 .bss           0x20002a20        0x0 ./build/stm32h7xx_hal_tim_ex.o
 .bss           0x20002a20        0x0 ./build/stm32h7xx_hal_eth_ex.o
 .bss           0x20002a20        0x0 ./build/stm32h7xx_ll_fmac.o
 .bss           0x20002a20        0x0 ./build/stm32h7xx_ll_delayblock.o
 .bss           0x20002a20        0x0 ./build/stm32h7xx_ll_dma2d.o
 .bss           0x20002a20        0x0 ./build/stm32h7xx_hal_hash.o
 .bss           0x20002a20        0x0 ./build/stm32h7xx_ll_mdma.o
 .bss           0x20002a20        0x0 ./build/stm32h7xx_hal_cryp_ex.o
 .bss           0x20002a20        0x0 ./build/stm32h7xx_hal_sai.o
 .bss           0x20002a20        0x0 ./build/stm32h7xx_hal_gfxmmu.o
 .bss           0x20002a20        0x0 ./build/stm32h7xx_ll_utils.o
 .bss           0x20002a20        0x0 ./build/stm32h7xx_hal_gpio.o
 .bss           0x20002a20        0x0 ./build/stm32h7xx_hal_jpeg.o
 .bss           0x20002a20        0x0 ./build/stm32h7xx_hal_ospi.o
 .bss           0x20002a20        0x0 ./build/stm32h7xx_ll_opamp.o
 .bss           0x20002a20        0x0 ./build/stm32h7xx_hal_adc.o
 .bss           0x20002a20        0x0 ./build/stm32h7xx_hal_pcd_ex.o
 .bss           0x20002a20        0x0 ./build/stm32h7xx_ll_dac.o
 .bss           0x20002a20        0x0 ./build/stm32h7xx_hal_usart_ex.o
 .bss           0x20002a20        0x0 ./build/stm32h7xx_hal_crc_ex.o
 .bss           0x20002a20        0x0 ./build/stm32h7xx_hal_rtc_ex.o
 .bss           0x20002a20        0x0 ./build/stm32h7xx_hal_otfdec.o
 .bss           0x20002a20        0x0 ./build/main.o
 .bss           0x20002a20        0x0 ./build/stm32h7xx_it.o
 .bss           0x20002a20        0x0 ./build/stm32h7xx_hal_msp.o
 .bss           0x20002a20       0x38 ./build/bmi088_sample.o
                0x20002a28                acc_test
                0x20002a40                gyr_test
 .bss           0x20002a58        0x4 ./build/sensor_intf_bmi088.o
 .bss           0x20002a5c        0x0 ./build/bmi088.o
 .bss           0x20002a5c        0x0 ./build/board.o
 *fill*         0x20002a5c        0x4 
 .bss           0x20002a60       0x18 ./build/sensor_intf_hmc5883l.o
                0x20002a60                mag_data
 .bss           0x20002a78        0x0 ./build/hmc5883l.o
 .bss           0x20002a78        0x0 ./build/sensor_intf_mmc5983ma.o
 .bss           0x20002a78        0x0 ./build/mmc5983ma.o
 .bss           0x20002a78        0x0 ./build/fport.o
 .bss           0x20002a78        0x0 ./build/spl06_001.o
 .bss           0x20002a78       0x60 ./build/dfs.o
                0x20002a7c                filesystem_operation_table
                0x20002a84                filesystem_table
 .bss           0x20002ad8        0x0 ./build/select.o
 .bss           0x20002ad8      0x128 ./build/dfs_file.o
 .bss           0x20002c00        0x0 ./build/poll.o
 .bss           0x20002c00        0x0 ./build/dfs_posix.o
 .bss           0x20002c00        0x0 ./build/dfs_fs.o
 .bss           0x20002c00        0x0 ./build/audio_pipe.o
 .bss           0x20002c00        0x0 ./build/audio.o
 .bss           0x20002c00        0x0 ./build/can.o
 .bss           0x20002c00        0x0 ./build/i2c_dev.o
 .bss           0x20002c00        0x0 ./build/i2c-bit-ops.o
 .bss           0x20002c00        0x0 ./build/i2c_core.o
 .bss           0x20002c00        0x0 ./build/completion.o
 .bss           0x20002c00        0x0 ./build/waitqueue.o
 .bss           0x20002c00        0x0 ./build/pipe.o
 .bss           0x20002c00        0x0 ./build/ringbuffer.o
 .bss           0x20002c00        0x0 ./build/dataqueue.o
 .bss           0x20002c00        0x0 ./build/workqueue.o
 .bss           0x20002c00        0x0 ./build/ringblk_buf.o
 .bss           0x20002c00        0x4 ./build/adc.o
 .bss           0x20002c04       0x4c ./build/pin.o
 .bss           0x20002c50        0x0 ./build/sd.o
 .bss           0x20002c50        0x0 ./build/sdio.o
 .bss           0x20002c50        0x0 ./build/mmc.o
 .bss           0x20002c50      0x520 ./build/mmcsd_core.o
 .bss           0x20003170        0x0 ./build/block_dev.o
 .bss           0x20003170       0x10 ./build/sensor_cmd.o
 .bss           0x20003180        0x0 ./build/sensor.o
 .bss           0x20003180        0x0 ./build/serial_v2.o
 .bss           0x20003180        0x0 ./build/spi_core.o
 .bss           0x20003180       0x60 ./build/spi_msd.o
 .bss           0x200031e0        0x0 ./build/spi_dev.o
 .bss           0x200031e0        0x8 ./build/winusb.o
 .bss           0x200031e8       0x18 ./build/audio_mic.o
 .bss           0x20003200        0x0 ./build/cdc_vcom.o
 .bss           0x20003200        0x0 ./build/hid.o
 .bss           0x20003200       0x12 ./build/mstorage.o
                0x20003200                request_sense_data_t
 *fill*         0x20003212        0x2 
 .bss           0x20003214       0x18 ./build/audio_speaker.o
 .bss           0x2000322c        0x0 ./build/ecm.o
 .bss           0x2000322c        0x0 ./build/rndis.o
 .bss           0x2000322c      0x524 ./build/usbdevice_core.o
 .bss           0x20003750        0x8 ./build/usbdevice.o
 .bss           0x20003758        0x0 ./build/cmd.o
 .bss           0x20003758        0x0 ./build/msh.o
 .bss           0x20003758       0x94 ./build/shell.o
                0x20003758                shell
                0x200037e4                _syscall_table_begin
                0x200037e8                _syscall_table_end
 .bss           0x200037ec        0x0 ./build/msh_file.o
 .bss           0x200037ec       0x10 ./build/cpuport.o
                0x200037f0                rt_thread_switch_interrupt_flag
                0x200037f4                rt_interrupt_to_thread
                0x200037f8                rt_interrupt_from_thread
 .bss           0x200037fc        0x0 ./build/components.o
 .bss           0x200037fc       0x14 ./build/timer.o
 .bss           0x20003810        0xc ./build/thread.o
 .bss           0x2000381c        0x0 ./build/slab.o
 .bss           0x2000381c        0x0 ./build/memheap.o
 .bss           0x2000381c       0x14 ./build/object.o
                0x20003824                rt_object_trytake_hook
                0x20003828                rt_object_take_hook
                0x2000382c                rt_object_put_hook
 .bss           0x20003830        0x0 ./build/signal.o
 .bss           0x20003830        0x0 ./build/cpu.o
 .bss           0x20003830        0x0 ./build/device.o
 .bss           0x20003830        0x0 ./build/ipc.o
 .bss           0x20003830       0xc4 ./build/kservice.o
                0x200038c0                rt_assert_hook
 .bss           0x200038f4        0x8 ./build/clock.o
 .bss           0x200038fc      0x115 ./build/scheduler.o
                0x200038fc                rt_thread_ready_priority_group
                0x20003900                rt_thread_priority_table
                0x20003a0c                rt_current_thread
                0x20003a10                rt_current_priority
 *fill*         0x20003a11        0x3 
 .bss           0x20003a14        0x9 ./build/irq.o
                0x20003a1c                rt_interrupt_nest
 *fill*         0x20003a1d        0x3 
 .bss           0x20003a20        0x8 ./build/mempool.o
 .bss           0x20003a28      0x1a0 ./build/idle.o
 .bss           0x20003bc8        0x0 ./build/mem.o
 .bss           0x20003bc8        0x0 ./build/startup_stm32h750xx.o
 .bss           0x20003bc8        0x0 ./build/context_gcc.o
 .bss           0x20003bc8        0x0 d:/software/work/gcc-arm-none-eabi-10.3-2021.07/bin/../lib/gcc/arm-none-eabi/10.3.1/thumb/v7e-m+dp/hard\libgcc.a(_aeabi_uldivmod.o)
 .bss           0x20003bc8        0x0 d:/software/work/gcc-arm-none-eabi-10.3-2021.07/bin/../lib/gcc/arm-none-eabi/10.3.1/thumb/v7e-m+dp/hard\libgcc.a(_udivmoddi4.o)
 .bss           0x20003bc8        0x0 d:/software/work/gcc-arm-none-eabi-10.3-2021.07/bin/../lib/gcc/arm-none-eabi/10.3.1/thumb/v7e-m+dp/hard\libgcc.a(_dvmd_tls.o)
 .bss           0x20003bc8        0x0 d:/software/work/gcc-arm-none-eabi-10.3-2021.07/bin/../lib/gcc/arm-none-eabi/10.3.1/../../../../arm-none-eabi/lib/thumb/v7e-m+dp/hard\libc.a(lib_a-atoi.o)
 .bss           0x20003bc8        0x0 d:/software/work/gcc-arm-none-eabi-10.3-2021.07/bin/../lib/gcc/arm-none-eabi/10.3.1/../../../../arm-none-eabi/lib/thumb/v7e-m+dp/hard\libc.a(lib_a-exit.o)
 .bss           0x20003bc8        0x0 d:/software/work/gcc-arm-none-eabi-10.3-2021.07/bin/../lib/gcc/arm-none-eabi/10.3.1/../../../../arm-none-eabi/lib/thumb/v7e-m+dp/hard\libc.a(lib_a-impure.o)
 .bss           0x20003bc8        0x0 d:/software/work/gcc-arm-none-eabi-10.3-2021.07/bin/../lib/gcc/arm-none-eabi/10.3.1/../../../../arm-none-eabi/lib/thumb/v7e-m+dp/hard\libc.a(lib_a-init.o)
 .bss           0x20003bc8        0x0 d:/software/work/gcc-arm-none-eabi-10.3-2021.07/bin/../lib/gcc/arm-none-eabi/10.3.1/../../../../arm-none-eabi/lib/thumb/v7e-m+dp/hard\libc.a(lib_a-memcmp.o)
 .bss           0x20003bc8        0x0 d:/software/work/gcc-arm-none-eabi-10.3-2021.07/bin/../lib/gcc/arm-none-eabi/10.3.1/../../../../arm-none-eabi/lib/thumb/v7e-m+dp/hard\libc.a(lib_a-memcpy.o)
 .bss           0x20003bc8        0x0 d:/software/work/gcc-arm-none-eabi-10.3-2021.07/bin/../lib/gcc/arm-none-eabi/10.3.1/../../../../arm-none-eabi/lib/thumb/v7e-m+dp/hard\libc.a(lib_a-memset.o)
 .bss           0x20003bc8        0x0 d:/software/work/gcc-arm-none-eabi-10.3-2021.07/bin/../lib/gcc/arm-none-eabi/10.3.1/../../../../arm-none-eabi/lib/thumb/v7e-m+dp/hard\libc.a(lib_a-strcat.o)
 .bss           0x20003bc8        0x0 d:/software/work/gcc-arm-none-eabi-10.3-2021.07/bin/../lib/gcc/arm-none-eabi/10.3.1/../../../../arm-none-eabi/lib/thumb/v7e-m+dp/hard\libc.a(lib_a-strcmp.o)
 .bss           0x20003bc8        0x0 d:/software/work/gcc-arm-none-eabi-10.3-2021.07/bin/../lib/gcc/arm-none-eabi/10.3.1/../../../../arm-none-eabi/lib/thumb/v7e-m+dp/hard\libc.a(lib_a-strcpy.o)
 .bss           0x20003bc8        0x0 d:/software/work/gcc-arm-none-eabi-10.3-2021.07/bin/../lib/gcc/arm-none-eabi/10.3.1/../../../../arm-none-eabi/lib/thumb/v7e-m+dp/hard\libc.a(lib_a-strlen.o)
 .bss           0x20003bc8        0x0 d:/software/work/gcc-arm-none-eabi-10.3-2021.07/bin/../lib/gcc/arm-none-eabi/10.3.1/../../../../arm-none-eabi/lib/thumb/v7e-m+dp/hard\libc.a(lib_a-strncmp.o)
 .bss           0x20003bc8        0x0 d:/software/work/gcc-arm-none-eabi-10.3-2021.07/bin/../lib/gcc/arm-none-eabi/10.3.1/../../../../arm-none-eabi/lib/thumb/v7e-m+dp/hard\libc.a(lib_a-strncpy.o)
 .bss           0x20003bc8        0x0 d:/software/work/gcc-arm-none-eabi-10.3-2021.07/bin/../lib/gcc/arm-none-eabi/10.3.1/../../../../arm-none-eabi/lib/thumb/v7e-m+dp/hard\libc.a(lib_a-strrchr.o)
 .bss           0x20003bc8        0x0 d:/software/work/gcc-arm-none-eabi-10.3-2021.07/bin/../lib/gcc/arm-none-eabi/10.3.1/../../../../arm-none-eabi/lib/thumb/v7e-m+dp/hard\libc.a(lib_a-strtol.o)
 .bss           0x20003bc8        0x0 d:/software/work/gcc-arm-none-eabi-10.3-2021.07/bin/../lib/gcc/arm-none-eabi/10.3.1/../../../../arm-none-eabi/lib/thumb/v7e-m+dp/hard\libc.a(lib_a-__call_atexit.o)
 .bss           0x20003bc8        0x0 d:/software/work/gcc-arm-none-eabi-10.3-2021.07/bin/../lib/gcc/arm-none-eabi/10.3.1/../../../../arm-none-eabi/lib/thumb/v7e-m+dp/hard\libc.a(lib_a-atexit.o)
 .bss           0x20003bc8        0x0 d:/software/work/gcc-arm-none-eabi-10.3-2021.07/bin/../lib/gcc/arm-none-eabi/10.3.1/../../../../arm-none-eabi/lib/thumb/v7e-m+dp/hard\libc.a(lib_a-ctype_.o)
 .bss           0x20003bc8        0x0 d:/software/work/gcc-arm-none-eabi-10.3-2021.07/bin/../lib/gcc/arm-none-eabi/10.3.1/../../../../arm-none-eabi/lib/thumb/v7e-m+dp/hard\libc.a(lib_a-errno.o)
 .bss           0x20003bc8        0x0 d:/software/work/gcc-arm-none-eabi-10.3-2021.07/bin/../lib/gcc/arm-none-eabi/10.3.1/../../../../arm-none-eabi/lib/thumb/v7e-m+dp/hard\libc.a(lib_a-fini.o)
 .bss           0x20003bc8        0x0 d:/software/work/gcc-arm-none-eabi-10.3-2021.07/bin/../lib/gcc/arm-none-eabi/10.3.1/../../../../arm-none-eabi/lib/thumb/v7e-m+dp/hard\libc.a(lib_a-lock.o)
 .bss           0x20003bc8        0x0 d:/software/work/gcc-arm-none-eabi-10.3-2021.07/bin/../lib/gcc/arm-none-eabi/10.3.1/../../../../arm-none-eabi/lib/thumb/v7e-m+dp/hard\libc.a(lib_a-strchr.o)
 .bss           0x20003bc8        0x0 d:/software/work/gcc-arm-none-eabi-10.3-2021.07/bin/../lib/gcc/arm-none-eabi/10.3.1/../../../../arm-none-eabi/lib/thumb/v7e-m+dp/hard\libc.a(lib_a-__atexit.o)
 .bss           0x20003bc8        0x0 d:/software/work/gcc-arm-none-eabi-10.3-2021.07/bin/../lib/gcc/arm-none-eabi/10.3.1/thumb/v7e-m+dp/hard/crtend.o
 .bss           0x20003bc8        0x0 d:/software/work/gcc-arm-none-eabi-10.3-2021.07/bin/../lib/gcc/arm-none-eabi/10.3.1/thumb/v7e-m+dp/hard/crtn.o
 *(.bss*)
 .bss.__lock___arc4random_mutex
                0x20003bc8        0x1 d:/software/work/gcc-arm-none-eabi-10.3-2021.07/bin/../lib/gcc/arm-none-eabi/10.3.1/../../../../arm-none-eabi/lib/thumb/v7e-m+dp/hard\libc.a(lib_a-lock.o)
                0x20003bc8                __lock___arc4random_mutex
 *fill*         0x20003bc9        0x3 
 .bss.__lock___at_quick_exit_mutex
                0x20003bcc        0x1 d:/software/work/gcc-arm-none-eabi-10.3-2021.07/bin/../lib/gcc/arm-none-eabi/10.3.1/../../../../arm-none-eabi/lib/thumb/v7e-m+dp/hard\libc.a(lib_a-lock.o)
                0x20003bcc                __lock___at_quick_exit_mutex
 *fill*         0x20003bcd        0x3 
 .bss.__lock___atexit_recursive_mutex
                0x20003bd0        0x1 d:/software/work/gcc-arm-none-eabi-10.3-2021.07/bin/../lib/gcc/arm-none-eabi/10.3.1/../../../../arm-none-eabi/lib/thumb/v7e-m+dp/hard\libc.a(lib_a-lock.o)
                0x20003bd0                __lock___atexit_recursive_mutex
 *fill*         0x20003bd1        0x3 
 .bss.__lock___dd_hash_mutex
                0x20003bd4        0x1 d:/software/work/gcc-arm-none-eabi-10.3-2021.07/bin/../lib/gcc/arm-none-eabi/10.3.1/../../../../arm-none-eabi/lib/thumb/v7e-m+dp/hard\libc.a(lib_a-lock.o)
                0x20003bd4                __lock___dd_hash_mutex
 *fill*         0x20003bd5        0x3 
 .bss.__lock___env_recursive_mutex
                0x20003bd8        0x1 d:/software/work/gcc-arm-none-eabi-10.3-2021.07/bin/../lib/gcc/arm-none-eabi/10.3.1/../../../../arm-none-eabi/lib/thumb/v7e-m+dp/hard\libc.a(lib_a-lock.o)
                0x20003bd8                __lock___env_recursive_mutex
 *fill*         0x20003bd9        0x3 
 .bss.__lock___malloc_recursive_mutex
                0x20003bdc        0x1 d:/software/work/gcc-arm-none-eabi-10.3-2021.07/bin/../lib/gcc/arm-none-eabi/10.3.1/../../../../arm-none-eabi/lib/thumb/v7e-m+dp/hard\libc.a(lib_a-lock.o)
                0x20003bdc                __lock___malloc_recursive_mutex
 *fill*         0x20003bdd        0x3 
 .bss.__lock___sfp_recursive_mutex
                0x20003be0        0x1 d:/software/work/gcc-arm-none-eabi-10.3-2021.07/bin/../lib/gcc/arm-none-eabi/10.3.1/../../../../arm-none-eabi/lib/thumb/v7e-m+dp/hard\libc.a(lib_a-lock.o)
                0x20003be0                __lock___sfp_recursive_mutex
 *fill*         0x20003be1        0x3 
 .bss.__lock___sinit_recursive_mutex
                0x20003be4        0x1 d:/software/work/gcc-arm-none-eabi-10.3-2021.07/bin/../lib/gcc/arm-none-eabi/10.3.1/../../../../arm-none-eabi/lib/thumb/v7e-m+dp/hard\libc.a(lib_a-lock.o)
                0x20003be4                __lock___sinit_recursive_mutex
 *fill*         0x20003be5        0x3 
 .bss.__lock___tz_mutex
                0x20003be8        0x1 d:/software/work/gcc-arm-none-eabi-10.3-2021.07/bin/../lib/gcc/arm-none-eabi/10.3.1/../../../../arm-none-eabi/lib/thumb/v7e-m+dp/hard\libc.a(lib_a-lock.o)
                0x20003be8                __lock___tz_mutex
 *(COMMON)
                0x20003bec                . = ALIGN (0x4)
 *fill*         0x20003be9        0x3 
                0x20003bec                _ebss = .
                0x20003bec                __bss_end__ = _ebss

._user_heap_stack
                0x20003bec      0x604 load address 0x0806b57c
                0x20003bf0                . = ALIGN (0x8)
 *fill*         0x20003bec        0x4 
                [!provide]                PROVIDE (end = .)
                [!provide]                PROVIDE (_end = .)
                0x20003df0                . = (. + _Min_Heap_Size)
 *fill*         0x20003bf0      0x200 
                0x200041f0                . = (. + _Min_Stack_Size)
 *fill*         0x20003df0      0x400 
                0x200041f0                . = ALIGN (0x8)
                0x200041f0                __user_heap_stack_end__ = .
                0x200041f0                __rtt_ram_begin = __user_heap_stack_end__

/DISCARD/
 libc.a(*)
 libm.a(*)
 libgcc.a(*)

.ARM.attributes
                0x00000000       0x2e
 *(.ARM.attributes)
 .ARM.attributes
                0x00000000       0x1e d:/software/work/gcc-arm-none-eabi-10.3-2021.07/bin/../lib/gcc/arm-none-eabi/10.3.1/thumb/v7e-m+dp/hard/crti.o
 .ARM.attributes
                0x0000001e       0x32 d:/software/work/gcc-arm-none-eabi-10.3-2021.07/bin/../lib/gcc/arm-none-eabi/10.3.1/thumb/v7e-m+dp/hard/crtbegin.o
 .ARM.attributes
                0x00000050       0x1c d:/software/work/gcc-arm-none-eabi-10.3-2021.07/bin/../lib/gcc/arm-none-eabi/10.3.1/../../../../arm-none-eabi/lib/thumb/v7e-m+dp/hard/crt0.o
 .ARM.attributes
                0x0000006c       0x32 ./build/drv_sdio.o
 .ARM.attributes
                0x0000009e       0x32 ./build/drv_usart_v2.o
 .ARM.attributes
                0x000000d0       0x32 ./build/drv_soft_i2c.o
 .ARM.attributes
                0x00000102       0x32 ./build/drv_gpio.o
 .ARM.attributes
                0x00000134       0x32 ./build/drv_spi.o
 .ARM.attributes
                0x00000166       0x37 ./build/drv_adc.o
 .ARM.attributes
                0x0000019d       0x32 ./build/drv_common.o
 .ARM.attributes
                0x000001cf       0x32 ./build/drv_fdcan.o
 .ARM.attributes
                0x00000201       0x37 ./build/drv_flash_h7.o
 .ARM.attributes
                0x00000238       0x32 ./build/system_stm32h7xx.o
 .ARM.attributes
                0x0000026a       0x32 ./build/stm32h7xx_ll_dma.o
 .ARM.attributes
                0x0000029c       0x32 ./build/stm32h7xx_hal_cryp.o
 .ARM.attributes
                0x000002ce       0x32 ./build/stm32h7xx_hal_hrtim.o
 .ARM.attributes
                0x00000300       0x32 ./build/stm32h7xx_hal.o
 .ARM.attributes
                0x00000332       0x32 ./build/stm32h7xx_hal_rcc_ex.o
 .ARM.attributes
                0x00000364       0x32 ./build/stm32h7xx_hal_fdcan.o
 .ARM.attributes
                0x00000396       0x32 ./build/stm32h7xx_hal_sd_ex.o
 .ARM.attributes
                0x000003c8       0x32 ./build/stm32h7xx_hal_hcd.o
 .ARM.attributes
                0x000003fa       0x32 ./build/stm32h7xx_hal_tim.o
 .ARM.attributes
                0x0000042c       0x32 ./build/stm32h7xx_hal_pcd.o
 .ARM.attributes
                0x0000045e       0x32 ./build/stm32h7xx_hal_dcmi.o
 .ARM.attributes
                0x00000490       0x32 ./build/stm32h7xx_hal_usart.o
 .ARM.attributes
                0x000004c2       0x32 ./build/stm32h7xx_hal_crc.o
 .ARM.attributes
                0x000004f4       0x32 ./build/stm32h7xx_hal_opamp_ex.o
 .ARM.attributes
                0x00000526       0x32 ./build/stm32h7xx_hal_dac.o
 .ARM.attributes
                0x00000558       0x32 ./build/stm32h7xx_hal_pwr_ex.o
 .ARM.attributes
                0x0000058a       0x37 ./build/stm32h7xx_hal_cordic.o
 .ARM.attributes
                0x000005c1       0x37 ./build/stm32h7xx_hal_dsi.o
 .ARM.attributes
                0x000005f8       0x32 ./build/stm32h7xx_ll_adc.o
 .ARM.attributes
                0x0000062a       0x32 ./build/stm32h7xx_ll_swpmi.o
 .ARM.attributes
                0x0000065c       0x32 ./build/stm32h7xx_hal_msp_template.o
 .ARM.attributes
                0x0000068e       0x32 ./build/stm32h7xx_hal_opamp.o
 .ARM.attributes
                0x000006c0       0x32 ./build/stm32h7xx_hal_rcc.o
 .ARM.attributes
                0x000006f2       0x32 ./build/stm32h7xx_hal_exti.o
 .ARM.attributes
                0x00000724       0x32 ./build/stm32h7xx_hal_sd.o
 .ARM.attributes
                0x00000756       0x32 ./build/stm32h7xx_ll_lpuart.o
 .ARM.attributes
                0x00000788       0x32 ./build/stm32h7xx_hal_eth.o
 .ARM.attributes
                0x000007ba       0x37 ./build/stm32h7xx_hal_i2s_ex.o
 .ARM.attributes
                0x000007f1       0x32 ./build/stm32h7xx_hal_dma2d.o
 .ARM.attributes
                0x00000823       0x32 ./build/stm32h7xx_hal_i2c.o
 .ARM.attributes
                0x00000855       0x32 ./build/stm32h7xx_hal_iwdg.o
 .ARM.attributes
                0x00000887       0x32 ./build/stm32h7xx_hal_flash.o
 .ARM.attributes
                0x000008b9       0x32 ./build/stm32h7xx_hal_smartcard.o
 .ARM.attributes
                0x000008eb       0x32 ./build/stm32h7xx_hal_pwr.o
 .ARM.attributes
                0x0000091d       0x32 ./build/stm32h7xx_hal_rtc.o
 .ARM.attributes
                0x0000094f       0x32 ./build/stm32h7xx_hal_ramecc.o
 .ARM.attributes
                0x00000981       0x32 ./build/stm32h7xx_ll_usart.o
 .ARM.attributes
                0x000009b3       0x32 ./build/stm32h7xx_hal_spdifrx.o
 .ARM.attributes
                0x000009e5       0x32 ./build/stm32h7xx_ll_crc.o
 .ARM.attributes
                0x00000a17       0x32 ./build/stm32h7xx_hal_mdios.o
 .ARM.attributes
                0x00000a49       0x32 ./build/stm32h7xx_hal_spi_ex.o
 .ARM.attributes
                0x00000a7b       0x37 ./build/stm32h7xx_ll_cordic.o
 .ARM.attributes
                0x00000ab2       0x32 ./build/stm32h7xx_hal_uart_ex.o
 .ARM.attributes
                0x00000ae4       0x32 ./build/stm32h7xx_hal_dfsdm.o
 .ARM.attributes
                0x00000b16       0x32 ./build/stm32h7xx_hal_cortex.o
 .ARM.attributes
                0x00000b48       0x32 ./build/stm32h7xx_hal_hsem.o
 .ARM.attributes
                0x00000b7a       0x32 ./build/stm32h7xx_ll_fmc.o
 .ARM.attributes
                0x00000bac       0x37 ./build/stm32h7xx_hal_rng_ex.o
 .ARM.attributes
                0x00000be3       0x32 ./build/stm32h7xx_hal_smartcard_ex.o
 .ARM.attributes
                0x00000c15       0x32 ./build/stm32h7xx_ll_crs.o
 .ARM.attributes
                0x00000c47       0x32 ./build/stm32h7xx_hal_lptim.o
 .ARM.attributes
                0x00000c79       0x32 ./build/stm32h7xx_ll_i2c.o
 .ARM.attributes
                0x00000cab       0x32 ./build/stm32h7xx_hal_comp.o
 .ARM.attributes
                0x00000cdd       0x32 ./build/stm32h7xx_ll_gpio.o
 .ARM.attributes
                0x00000d0f       0x32 ./build/stm32h7xx_hal_mmc.o
 .ARM.attributes
                0x00000d41       0x32 ./build/stm32h7xx_hal_spi.o
 .ARM.attributes
                0x00000d73       0x32 ./build/stm32h7xx_ll_rtc.o
 .ARM.attributes
                0x00000da5       0x32 ./build/stm32h7xx_hal_uart.o
 .ARM.attributes
                0x00000dd7       0x32 ./build/stm32h7xx_hal_sdram.o
 .ARM.attributes
                0x00000e09       0x32 ./build/stm32h7xx_hal_wwdg.o
 .ARM.attributes
                0x00000e3b       0x32 ./build/stm32h7xx_ll_pwr.o
 .ARM.attributes
                0x00000e6d       0x32 ./build/stm32h7xx_hal_smbus_ex.o
 .ARM.attributes
                0x00000e9f       0x37 ./build/stm32h7xx_hal_pssi.o
 .ARM.attributes
                0x00000ed6       0x32 ./build/stm32h7xx_hal_rng.o
 .ARM.attributes
                0x00000f08       0x32 ./build/stm32h7xx_hal_flash_ex.o
 .ARM.attributes
                0x00000f3a       0x32 ./build/stm32h7xx_ll_rcc.o
 .ARM.attributes
                0x00000f6c       0x32 ./build/stm32h7xx_ll_usb.o
 .ARM.attributes
                0x00000f9e       0x32 ./build/stm32h7xx_hal_irda.o
 .ARM.attributes
                0x00000fd0       0x32 ./build/stm32h7xx_hal_nor.o
 .ARM.attributes
                0x00001002       0x32 ./build/stm32h7xx_ll_exti.o
 .ARM.attributes
                0x00001034       0x32 ./build/stm32h7xx_hal_smbus.o
 .ARM.attributes
                0x00001066       0x32 ./build/stm32h7xx_ll_comp.o
 .ARM.attributes
                0x00001098       0x32 ./build/stm32h7xx_hal_cec.o
 .ARM.attributes
                0x000010ca       0x32 ./build/stm32h7xx_ll_spi.o
 .ARM.attributes
                0x000010fc       0x32 ./build/stm32h7xx_ll_lptim.o
 .ARM.attributes
                0x0000112e       0x37 ./build/stm32h7xx_hal_dfsdm_ex.o
 .ARM.attributes
                0x00001165       0x37 ./build/stm32h7xx_hal_dts.o
 .ARM.attributes
                0x0000119c       0x32 ./build/stm32h7xx_ll_hrtim.o
 .ARM.attributes
                0x000011ce       0x32 ./build/stm32h7xx_hal_dac_ex.o
 .ARM.attributes
                0x00001200       0x32 ./build/stm32h7xx_ll_tim.o
 .ARM.attributes
                0x00001232       0x37 ./build/stm32h7xx_hal_fmac.o
 .ARM.attributes
                0x00001269       0x32 ./build/stm32h7xx_hal_i2c_ex.o
 .ARM.attributes
                0x0000129b       0x32 ./build/stm32h7xx_ll_bdma.o
 .ARM.attributes
                0x000012cd       0x32 ./build/stm32h7xx_hal_sram.o
 .ARM.attributes
                0x000012ff       0x32 ./build/stm32h7xx_hal_dma_ex.o
 .ARM.attributes
                0x00001331       0x32 ./build/stm32h7xx_ll_rng.o
 .ARM.attributes
                0x00001363       0x37 ./build/stm32h7xx_hal_ltdc_ex.o
 .ARM.attributes
                0x0000139a       0x32 ./build/stm32h7xx_hal_swpmi.o
 .ARM.attributes
                0x000013cc       0x32 ./build/stm32h7xx_hal_hash_ex.o
 .ARM.attributes
                0x000013fe       0x32 ./build/stm32h7xx_hal_qspi.o
 .ARM.attributes
                0x00001430       0x32 ./build/stm32h7xx_hal_nand.o
 .ARM.attributes
                0x00001462       0x32 ./build/stm32h7xx_hal_i2s.o
 .ARM.attributes
                0x00001494       0x32 ./build/stm32h7xx_hal_sai_ex.o
 .ARM.attributes
                0x000014c6       0x32 ./build/stm32h7xx_ll_sdmmc.o
 .ARM.attributes
                0x000014f8       0x32 ./build/stm32h7xx_hal_ltdc.o
 .ARM.attributes
                0x0000152a       0x32 ./build/stm32h7xx_hal_dma.o
 .ARM.attributes
                0x0000155c       0x32 ./build/stm32h7xx_hal_mdma.o
 .ARM.attributes
                0x0000158e       0x32 ./build/stm32h7xx_hal_mmc_ex.o
 .ARM.attributes
                0x000015c0       0x32 ./build/stm32h7xx_hal_adc_ex.o
 .ARM.attributes
                0x000015f2       0x32 ./build/stm32h7xx_hal_tim_ex.o
 .ARM.attributes
                0x00001624       0x32 ./build/stm32h7xx_hal_eth_ex.o
 .ARM.attributes
                0x00001656       0x37 ./build/stm32h7xx_ll_fmac.o
 .ARM.attributes
                0x0000168d       0x32 ./build/stm32h7xx_ll_delayblock.o
 .ARM.attributes
                0x000016bf       0x32 ./build/stm32h7xx_ll_dma2d.o
 .ARM.attributes
                0x000016f1       0x32 ./build/stm32h7xx_hal_hash.o
 .ARM.attributes
                0x00001723       0x32 ./build/stm32h7xx_ll_mdma.o
 .ARM.attributes
                0x00001755       0x32 ./build/stm32h7xx_hal_cryp_ex.o
 .ARM.attributes
                0x00001787       0x32 ./build/stm32h7xx_hal_sai.o
 .ARM.attributes
                0x000017b9       0x37 ./build/stm32h7xx_hal_gfxmmu.o
 .ARM.attributes
                0x000017f0       0x32 ./build/stm32h7xx_ll_utils.o
 .ARM.attributes
                0x00001822       0x32 ./build/stm32h7xx_hal_gpio.o
 .ARM.attributes
                0x00001854       0x32 ./build/stm32h7xx_hal_jpeg.o
 .ARM.attributes
                0x00001886       0x37 ./build/stm32h7xx_hal_ospi.o
 .ARM.attributes
                0x000018bd       0x32 ./build/stm32h7xx_ll_opamp.o
 .ARM.attributes
                0x000018ef       0x32 ./build/stm32h7xx_hal_adc.o
 .ARM.attributes
                0x00001921       0x32 ./build/stm32h7xx_hal_pcd_ex.o
 .ARM.attributes
                0x00001953       0x32 ./build/stm32h7xx_ll_dac.o
 .ARM.attributes
                0x00001985       0x32 ./build/stm32h7xx_hal_usart_ex.o
 .ARM.attributes
                0x000019b7       0x32 ./build/stm32h7xx_hal_crc_ex.o
 .ARM.attributes
                0x000019e9       0x32 ./build/stm32h7xx_hal_rtc_ex.o
 .ARM.attributes
                0x00001a1b       0x37 ./build/stm32h7xx_hal_otfdec.o
 .ARM.attributes
                0x00001a52       0x32 ./build/main.o
 .ARM.attributes
                0x00001a84       0x32 ./build/stm32h7xx_it.o
 .ARM.attributes
                0x00001ab6       0x32 ./build/stm32h7xx_hal_msp.o
 .ARM.attributes
                0x00001ae8       0x32 ./build/bmi088_sample.o
 .ARM.attributes
                0x00001b1a       0x32 ./build/sensor_intf_bmi088.o
 .ARM.attributes
                0x00001b4c       0x32 ./build/bmi088.o
 .ARM.attributes
                0x00001b7e       0x32 ./build/board.o
 .ARM.attributes
                0x00001bb0       0x32 ./build/sensor_intf_hmc5883l.o
 .ARM.attributes
                0x00001be2       0x32 ./build/hmc5883l.o
 .ARM.attributes
                0x00001c14       0x32 ./build/sensor_intf_mmc5983ma.o
 .ARM.attributes
                0x00001c46       0x32 ./build/mmc5983ma.o
 .ARM.attributes
                0x00001c78       0x37 ./build/fport.o
 .ARM.attributes
                0x00001caf       0x32 ./build/spl06_001.o
 .ARM.attributes
                0x00001ce1       0x32 ./build/dfs.o
 .ARM.attributes
                0x00001d13       0x32 ./build/select.o
 .ARM.attributes
                0x00001d45       0x32 ./build/dfs_file.o
 .ARM.attributes
                0x00001d77       0x32 ./build/poll.o
 .ARM.attributes
                0x00001da9       0x32 ./build/dfs_posix.o
 .ARM.attributes
                0x00001ddb       0x32 ./build/dfs_fs.o
 .ARM.attributes
                0x00001e0d       0x32 ./build/audio_pipe.o
 .ARM.attributes
                0x00001e3f       0x32 ./build/audio.o
 .ARM.attributes
                0x00001e71       0x32 ./build/can.o
 .ARM.attributes
                0x00001ea3       0x32 ./build/i2c_dev.o
 .ARM.attributes
                0x00001ed5       0x32 ./build/i2c-bit-ops.o
 .ARM.attributes
                0x00001f07       0x32 ./build/i2c_core.o
 .ARM.attributes
                0x00001f39       0x32 ./build/completion.o
 .ARM.attributes
                0x00001f6b       0x32 ./build/waitqueue.o
 .ARM.attributes
                0x00001f9d       0x32 ./build/pipe.o
 .ARM.attributes
                0x00001fcf       0x32 ./build/ringbuffer.o
 .ARM.attributes
                0x00002001       0x32 ./build/dataqueue.o
 .ARM.attributes
                0x00002033       0x32 ./build/workqueue.o
 .ARM.attributes
                0x00002065       0x32 ./build/ringblk_buf.o
 .ARM.attributes
                0x00002097       0x32 ./build/adc.o
 .ARM.attributes
                0x000020c9       0x32 ./build/pin.o
 .ARM.attributes
                0x000020fb       0x32 ./build/sd.o
 .ARM.attributes
                0x0000212d       0x32 ./build/sdio.o
 .ARM.attributes
                0x0000215f       0x32 ./build/mmc.o
 .ARM.attributes
                0x00002191       0x32 ./build/mmcsd_core.o
 .ARM.attributes
                0x000021c3       0x32 ./build/block_dev.o
 .ARM.attributes
                0x000021f5       0x32 ./build/sensor_cmd.o
 .ARM.attributes
                0x00002227       0x32 ./build/sensor.o
 .ARM.attributes
                0x00002259       0x32 ./build/serial_v2.o
 .ARM.attributes
                0x0000228b       0x32 ./build/spi_core.o
 .ARM.attributes
                0x000022bd       0x32 ./build/spi_msd.o
 .ARM.attributes
                0x000022ef       0x32 ./build/spi_dev.o
 .ARM.attributes
                0x00002321       0x32 ./build/winusb.o
 .ARM.attributes
                0x00002353       0x32 ./build/audio_mic.o
 .ARM.attributes
                0x00002385       0x37 ./build/cdc_vcom.o
 .ARM.attributes
                0x000023bc       0x37 ./build/hid.o
 .ARM.attributes
                0x000023f3       0x37 ./build/mstorage.o
 .ARM.attributes
                0x0000242a       0x32 ./build/audio_speaker.o
 .ARM.attributes
                0x0000245c       0x37 ./build/ecm.o
 .ARM.attributes
                0x00002493       0x37 ./build/rndis.o
 .ARM.attributes
                0x000024ca       0x32 ./build/usbdevice_core.o
 .ARM.attributes
                0x000024fc       0x32 ./build/usbdevice.o
 .ARM.attributes
                0x0000252e       0x32 ./build/cmd.o
 .ARM.attributes
                0x00002560       0x32 ./build/msh.o
 .ARM.attributes
                0x00002592       0x32 ./build/shell.o
 .ARM.attributes
                0x000025c4       0x37 ./build/msh_file.o
 .ARM.attributes
                0x000025fb       0x32 ./build/cpuport.o
 .ARM.attributes
                0x0000262d       0x32 ./build/components.o
 .ARM.attributes
                0x0000265f       0x32 ./build/timer.o
 .ARM.attributes
                0x00002691       0x32 ./build/thread.o
 .ARM.attributes
                0x000026c3       0x37 ./build/slab.o
 .ARM.attributes
                0x000026fa       0x37 ./build/memheap.o
 .ARM.attributes
                0x00002731       0x32 ./build/object.o
 .ARM.attributes
                0x00002763       0x37 ./build/signal.o
 .ARM.attributes
                0x0000279a       0x37 ./build/cpu.o
 .ARM.attributes
                0x000027d1       0x32 ./build/device.o
 .ARM.attributes
                0x00002803       0x32 ./build/ipc.o
 .ARM.attributes
                0x00002835       0x32 ./build/kservice.o
 .ARM.attributes
                0x00002867       0x32 ./build/clock.o
 .ARM.attributes
                0x00002899       0x32 ./build/scheduler.o
 .ARM.attributes
                0x000028cb       0x32 ./build/irq.o
 .ARM.attributes
                0x000028fd       0x32 ./build/mempool.o
 .ARM.attributes
                0x0000292f       0x32 ./build/idle.o
 .ARM.attributes
                0x00002961       0x32 ./build/mem.o
 .ARM.attributes
                0x00002993       0x21 ./build/startup_stm32h750xx.o
 .ARM.attributes
                0x000029b4       0x23 ./build/context_gcc.o
 .ARM.attributes
                0x000029d7       0x1e d:/software/work/gcc-arm-none-eabi-10.3-2021.07/bin/../lib/gcc/arm-none-eabi/10.3.1/thumb/v7e-m+dp/hard\libgcc.a(_aeabi_uldivmod.o)
 .ARM.attributes
                0x000029f5       0x32 d:/software/work/gcc-arm-none-eabi-10.3-2021.07/bin/../lib/gcc/arm-none-eabi/10.3.1/thumb/v7e-m+dp/hard\libgcc.a(_udivmoddi4.o)
 .ARM.attributes
                0x00002a27       0x1e d:/software/work/gcc-arm-none-eabi-10.3-2021.07/bin/../lib/gcc/arm-none-eabi/10.3.1/thumb/v7e-m+dp/hard\libgcc.a(_dvmd_tls.o)
 .ARM.attributes
                0x00002a45       0x32 d:/software/work/gcc-arm-none-eabi-10.3-2021.07/bin/../lib/gcc/arm-none-eabi/10.3.1/../../../../arm-none-eabi/lib/thumb/v7e-m+dp/hard\libc.a(lib_a-atoi.o)
 .ARM.attributes
                0x00002a77       0x32 d:/software/work/gcc-arm-none-eabi-10.3-2021.07/bin/../lib/gcc/arm-none-eabi/10.3.1/../../../../arm-none-eabi/lib/thumb/v7e-m+dp/hard\libc.a(lib_a-exit.o)
 .ARM.attributes
                0x00002aa9       0x30 d:/software/work/gcc-arm-none-eabi-10.3-2021.07/bin/../lib/gcc/arm-none-eabi/10.3.1/../../../../arm-none-eabi/lib/thumb/v7e-m+dp/hard\libc.a(lib_a-impure.o)
 .ARM.attributes
                0x00002ad9       0x32 d:/software/work/gcc-arm-none-eabi-10.3-2021.07/bin/../lib/gcc/arm-none-eabi/10.3.1/../../../../arm-none-eabi/lib/thumb/v7e-m+dp/hard\libc.a(lib_a-init.o)
 .ARM.attributes
                0x00002b0b       0x32 d:/software/work/gcc-arm-none-eabi-10.3-2021.07/bin/../lib/gcc/arm-none-eabi/10.3.1/../../../../arm-none-eabi/lib/thumb/v7e-m+dp/hard\libc.a(lib_a-memcmp.o)
 .ARM.attributes
                0x00002b3d       0x1c d:/software/work/gcc-arm-none-eabi-10.3-2021.07/bin/../lib/gcc/arm-none-eabi/10.3.1/../../../../arm-none-eabi/lib/thumb/v7e-m+dp/hard\libc.a(lib_a-memcpy.o)
 .ARM.attributes
                0x00002b59       0x32 d:/software/work/gcc-arm-none-eabi-10.3-2021.07/bin/../lib/gcc/arm-none-eabi/10.3.1/../../../../arm-none-eabi/lib/thumb/v7e-m+dp/hard\libc.a(lib_a-memset.o)
 .ARM.attributes
                0x00002b8b       0x32 d:/software/work/gcc-arm-none-eabi-10.3-2021.07/bin/../lib/gcc/arm-none-eabi/10.3.1/../../../../arm-none-eabi/lib/thumb/v7e-m+dp/hard\libc.a(lib_a-strcat.o)
 .ARM.attributes
                0x00002bbd       0x1c d:/software/work/gcc-arm-none-eabi-10.3-2021.07/bin/../lib/gcc/arm-none-eabi/10.3.1/../../../../arm-none-eabi/lib/thumb/v7e-m+dp/hard\libc.a(lib_a-strcmp.o)
 .ARM.attributes
                0x00002bd9       0x32 d:/software/work/gcc-arm-none-eabi-10.3-2021.07/bin/../lib/gcc/arm-none-eabi/10.3.1/../../../../arm-none-eabi/lib/thumb/v7e-m+dp/hard\libc.a(lib_a-strcpy.o)
 .ARM.attributes
                0x00002c0b       0x1c d:/software/work/gcc-arm-none-eabi-10.3-2021.07/bin/../lib/gcc/arm-none-eabi/10.3.1/../../../../arm-none-eabi/lib/thumb/v7e-m+dp/hard\libc.a(lib_a-strlen.o)
 .ARM.attributes
                0x00002c27       0x32 d:/software/work/gcc-arm-none-eabi-10.3-2021.07/bin/../lib/gcc/arm-none-eabi/10.3.1/../../../../arm-none-eabi/lib/thumb/v7e-m+dp/hard\libc.a(lib_a-strncmp.o)
 .ARM.attributes
                0x00002c59       0x32 d:/software/work/gcc-arm-none-eabi-10.3-2021.07/bin/../lib/gcc/arm-none-eabi/10.3.1/../../../../arm-none-eabi/lib/thumb/v7e-m+dp/hard\libc.a(lib_a-strncpy.o)
 .ARM.attributes
                0x00002c8b       0x32 d:/software/work/gcc-arm-none-eabi-10.3-2021.07/bin/../lib/gcc/arm-none-eabi/10.3.1/../../../../arm-none-eabi/lib/thumb/v7e-m+dp/hard\libc.a(lib_a-strrchr.o)
 .ARM.attributes
                0x00002cbd       0x32 d:/software/work/gcc-arm-none-eabi-10.3-2021.07/bin/../lib/gcc/arm-none-eabi/10.3.1/../../../../arm-none-eabi/lib/thumb/v7e-m+dp/hard\libc.a(lib_a-strtol.o)
 .ARM.attributes
                0x00002cef       0x32 d:/software/work/gcc-arm-none-eabi-10.3-2021.07/bin/../lib/gcc/arm-none-eabi/10.3.1/../../../../arm-none-eabi/lib/thumb/v7e-m+dp/hard\libc.a(lib_a-__call_atexit.o)
 .ARM.attributes
                0x00002d21       0x32 d:/software/work/gcc-arm-none-eabi-10.3-2021.07/bin/../lib/gcc/arm-none-eabi/10.3.1/../../../../arm-none-eabi/lib/thumb/v7e-m+dp/hard\libc.a(lib_a-atexit.o)
 .ARM.attributes
                0x00002d53       0x30 d:/software/work/gcc-arm-none-eabi-10.3-2021.07/bin/../lib/gcc/arm-none-eabi/10.3.1/../../../../arm-none-eabi/lib/thumb/v7e-m+dp/hard\libc.a(lib_a-ctype_.o)
 .ARM.attributes
                0x00002d83       0x32 d:/software/work/gcc-arm-none-eabi-10.3-2021.07/bin/../lib/gcc/arm-none-eabi/10.3.1/../../../../arm-none-eabi/lib/thumb/v7e-m+dp/hard\libc.a(lib_a-errno.o)
 .ARM.attributes
                0x00002db5       0x32 d:/software/work/gcc-arm-none-eabi-10.3-2021.07/bin/../lib/gcc/arm-none-eabi/10.3.1/../../../../arm-none-eabi/lib/thumb/v7e-m+dp/hard\libc.a(lib_a-fini.o)
 .ARM.attributes
                0x00002de7       0x32 d:/software/work/gcc-arm-none-eabi-10.3-2021.07/bin/../lib/gcc/arm-none-eabi/10.3.1/../../../../arm-none-eabi/lib/thumb/v7e-m+dp/hard\libc.a(lib_a-lock.o)
 .ARM.attributes
                0x00002e19       0x32 d:/software/work/gcc-arm-none-eabi-10.3-2021.07/bin/../lib/gcc/arm-none-eabi/10.3.1/../../../../arm-none-eabi/lib/thumb/v7e-m+dp/hard\libc.a(lib_a-strchr.o)
 .ARM.attributes
                0x00002e4b       0x32 d:/software/work/gcc-arm-none-eabi-10.3-2021.07/bin/../lib/gcc/arm-none-eabi/10.3.1/../../../../arm-none-eabi/lib/thumb/v7e-m+dp/hard\libc.a(lib_a-__atexit.o)
 .ARM.attributes
                0x00002e7d       0x30 d:/software/work/gcc-arm-none-eabi-10.3-2021.07/bin/../lib/gcc/arm-none-eabi/10.3.1/thumb/v7e-m+dp/hard/crtend.o
 .ARM.attributes
                0x00002ead       0x1e d:/software/work/gcc-arm-none-eabi-10.3-2021.07/bin/../lib/gcc/arm-none-eabi/10.3.1/thumb/v7e-m+dp/hard/crtn.o
OUTPUT(build/Rcf.elf elf32-littlearm)
LOAD linker stubs
LOAD d:/software/work/gcc-arm-none-eabi-10.3-2021.07/bin/../lib/gcc/arm-none-eabi/10.3.1/../../../../arm-none-eabi/lib/thumb/v7e-m+dp/hard\libc.a
LOAD d:/software/work/gcc-arm-none-eabi-10.3-2021.07/bin/../lib/gcc/arm-none-eabi/10.3.1/../../../../arm-none-eabi/lib/thumb/v7e-m+dp/hard\libm.a
LOAD d:/software/work/gcc-arm-none-eabi-10.3-2021.07/bin/../lib/gcc/arm-none-eabi/10.3.1/thumb/v7e-m+dp/hard\libgcc.a

.debug_info     0x00000000    0xf67ad
 .debug_info    0x00000000     0x20fb ./build/drv_sdio.o
 .debug_info    0x000020fb     0x2ba7 ./build/drv_usart_v2.o
 .debug_info    0x00004ca2      0xe3a ./build/drv_soft_i2c.o
 .debug_info    0x00005adc     0x1afd ./build/drv_gpio.o
 .debug_info    0x000075d9     0x25c3 ./build/drv_spi.o
 .debug_info    0x00009b9c       0x80 ./build/drv_adc.o
 .debug_info    0x00009c1c      0xf18 ./build/drv_common.o
 .debug_info    0x0000ab34     0x280b ./build/drv_fdcan.o
 .debug_info    0x0000d33f       0x80 ./build/drv_flash_h7.o
 .debug_info    0x0000d3bf      0xd30 ./build/system_stm32h7xx.o
 .debug_info    0x0000e0ef      0xd92 ./build/stm32h7xx_ll_dma.o
 .debug_info    0x0000ee81     0x2bfd ./build/stm32h7xx_hal_cryp.o
 .debug_info    0x00011a7e     0x481b ./build/stm32h7xx_hal_hrtim.o
 .debug_info    0x00016299     0x16a6 ./build/stm32h7xx_hal.o
 .debug_info    0x0001793f     0x19de ./build/stm32h7xx_hal_rcc_ex.o
 .debug_info    0x0001931d     0x348c ./build/stm32h7xx_hal_fdcan.o
 .debug_info    0x0001c7a9      0x80b ./build/stm32h7xx_hal_sd_ex.o
 .debug_info    0x0001cfb4     0x14e3 ./build/stm32h7xx_hal_hcd.o
 .debug_info    0x0001e497     0x3fcf ./build/stm32h7xx_hal_tim.o
 .debug_info    0x00022466     0x1b9f ./build/stm32h7xx_hal_pcd.o
 .debug_info    0x00024005      0xd8d ./build/stm32h7xx_hal_dcmi.o
 .debug_info    0x00024d92     0x22f0 ./build/stm32h7xx_hal_usart.o
 .debug_info    0x00027082      0x636 ./build/stm32h7xx_hal_crc.o
 .debug_info    0x000276b8      0x433 ./build/stm32h7xx_hal_opamp_ex.o
 .debug_info    0x00027aeb      0xd3c ./build/stm32h7xx_hal_dac.o
 .debug_info    0x00028827     0x122e ./build/stm32h7xx_hal_pwr_ex.o
 .debug_info    0x00029a55       0x80 ./build/stm32h7xx_hal_cordic.o
 .debug_info    0x00029ad5       0x80 ./build/stm32h7xx_hal_dsi.o
 .debug_info    0x00029b55     0x1166 ./build/stm32h7xx_ll_adc.o
 .debug_info    0x0002acbb      0x7c2 ./build/stm32h7xx_ll_swpmi.o
 .debug_info    0x0002b47d       0xd0 ./build/stm32h7xx_hal_msp_template.o
 .debug_info    0x0002b54d      0x612 ./build/stm32h7xx_hal_opamp.o
 .debug_info    0x0002bb5f     0x121e ./build/stm32h7xx_hal_rcc.o
 .debug_info    0x0002cd7d      0xa76 ./build/stm32h7xx_hal_exti.o
 .debug_info    0x0002d7f3     0x250a ./build/stm32h7xx_hal_sd.o
 .debug_info    0x0002fcfd      0x9a0 ./build/stm32h7xx_ll_lpuart.o
 .debug_info    0x0003069d     0x2fd7 ./build/stm32h7xx_hal_eth.o
 .debug_info    0x00033674     0x15be ./build/stm32h7xx_hal_dma2d.o
 .debug_info    0x00034c32     0x4233 ./build/stm32h7xx_hal_i2c.o
 .debug_info    0x00038e65      0x23f ./build/stm32h7xx_hal_iwdg.o
 .debug_info    0x000390a4      0xa90 ./build/stm32h7xx_hal_flash.o
 .debug_info    0x00039b34     0x1ce9 ./build/stm32h7xx_hal_smartcard.o
 .debug_info    0x0003b81d      0x984 ./build/stm32h7xx_hal_pwr.o
 .debug_info    0x0003c1a1     0x130f ./build/stm32h7xx_hal_rtc.o
 .debug_info    0x0003d4b0      0x604 ./build/stm32h7xx_hal_ramecc.o
 .debug_info    0x0003dab4      0xdca ./build/stm32h7xx_ll_usart.o
 .debug_info    0x0003e87e     0x11f0 ./build/stm32h7xx_hal_spdifrx.o
 .debug_info    0x0003fa6e      0x5c4 ./build/stm32h7xx_ll_crc.o
 .debug_info    0x00040032      0xca4 ./build/stm32h7xx_hal_mdios.o
 .debug_info    0x00040cd6      0x8e9 ./build/stm32h7xx_hal_spi_ex.o
 .debug_info    0x000415bf       0x80 ./build/stm32h7xx_ll_cordic.o
 .debug_info    0x0004163f     0x120e ./build/stm32h7xx_hal_uart_ex.o
 .debug_info    0x0004284d     0x23c1 ./build/stm32h7xx_hal_dfsdm.o
 .debug_info    0x00044c0e     0x13f0 ./build/stm32h7xx_hal_cortex.o
 .debug_info    0x00045ffe      0x3dd ./build/stm32h7xx_hal_hsem.o
 .debug_info    0x000463db      0xd25 ./build/stm32h7xx_ll_fmc.o
 .debug_info    0x00047100       0x80 ./build/stm32h7xx_hal_rng_ex.o
 .debug_info    0x00047180      0xaf3 ./build/stm32h7xx_hal_smartcard_ex.o
 .debug_info    0x00047c73      0x534 ./build/stm32h7xx_ll_crs.o
 .debug_info    0x000481a7     0x17af ./build/stm32h7xx_hal_lptim.o
 .debug_info    0x00049956      0xb05 ./build/stm32h7xx_ll_i2c.o
 .debug_info    0x0004a45b      0x8bc ./build/stm32h7xx_hal_comp.o
 .debug_info    0x0004ad17      0xd5c ./build/stm32h7xx_ll_gpio.o
 .debug_info    0x0004ba73     0x2b9d ./build/stm32h7xx_hal_mmc.o
 .debug_info    0x0004e610     0x1c67 ./build/stm32h7xx_hal_spi.o
 .debug_info    0x00050277     0x19b9 ./build/stm32h7xx_ll_rtc.o
 .debug_info    0x00051c30     0x652f ./build/stm32h7xx_hal_uart.o
 .debug_info    0x0005815f     0x12bb ./build/stm32h7xx_hal_sdram.o
 .debug_info    0x0005941a      0x2a7 ./build/stm32h7xx_hal_wwdg.o
 .debug_info    0x000596c1      0x194 ./build/stm32h7xx_ll_pwr.o
 .debug_info    0x00059855      0x9ed ./build/stm32h7xx_hal_smbus_ex.o
 .debug_info    0x0005a242       0x80 ./build/stm32h7xx_hal_pssi.o
 .debug_info    0x0005a2c2      0x553 ./build/stm32h7xx_hal_rng.o
 .debug_info    0x0005a815      0xfb1 ./build/stm32h7xx_hal_flash_ex.o
 .debug_info    0x0005b7c6     0x2b7d ./build/stm32h7xx_ll_rcc.o
 .debug_info    0x0005e343     0x202d ./build/stm32h7xx_ll_usb.o
 .debug_info    0x00060370     0x1c7e ./build/stm32h7xx_hal_irda.o
 .debug_info    0x00061fee     0x1196 ./build/stm32h7xx_hal_nor.o
 .debug_info    0x00063184      0xc0d ./build/stm32h7xx_ll_exti.o
 .debug_info    0x00063d91     0x153d ./build/stm32h7xx_hal_smbus.o
 .debug_info    0x000652ce      0x285 ./build/stm32h7xx_ll_comp.o
 .debug_info    0x00065553      0x65b ./build/stm32h7xx_hal_cec.o
 .debug_info    0x00065bae      0xd64 ./build/stm32h7xx_ll_spi.o
 .debug_info    0x00066912      0xeaf ./build/stm32h7xx_ll_lptim.o
 .debug_info    0x000677c1       0x80 ./build/stm32h7xx_hal_dfsdm_ex.o
 .debug_info    0x00067841       0x80 ./build/stm32h7xx_hal_dts.o
 .debug_info    0x000678c1      0xc38 ./build/stm32h7xx_ll_hrtim.o
 .debug_info    0x000684f9      0xd0e ./build/stm32h7xx_hal_dac_ex.o
 .debug_info    0x00069207     0x1a69 ./build/stm32h7xx_ll_tim.o
 .debug_info    0x0006ac70       0x80 ./build/stm32h7xx_hal_fmac.o
 .debug_info    0x0006acf0      0xe56 ./build/stm32h7xx_hal_i2c_ex.o
 .debug_info    0x0006bb46      0xca0 ./build/stm32h7xx_ll_bdma.o
 .debug_info    0x0006c7e6     0x10d7 ./build/stm32h7xx_hal_sram.o
 .debug_info    0x0006d8bd      0x961 ./build/stm32h7xx_hal_dma_ex.o
 .debug_info    0x0006e21e      0x621 ./build/stm32h7xx_ll_rng.o
 .debug_info    0x0006e83f       0x80 ./build/stm32h7xx_hal_ltdc_ex.o
 .debug_info    0x0006e8bf     0x1306 ./build/stm32h7xx_hal_swpmi.o
 .debug_info    0x0006fbc5     0x1940 ./build/stm32h7xx_hal_hash_ex.o
 .debug_info    0x00071505     0x1965 ./build/stm32h7xx_hal_qspi.o
 .debug_info    0x00072e6a     0x2210 ./build/stm32h7xx_hal_nand.o
 .debug_info    0x0007507a     0x1528 ./build/stm32h7xx_hal_i2s.o
 .debug_info    0x000765a2      0x917 ./build/stm32h7xx_hal_sai_ex.o
 .debug_info    0x00076eb9     0x1baf ./build/stm32h7xx_ll_sdmmc.o
 .debug_info    0x00078a68     0x1595 ./build/stm32h7xx_hal_ltdc.o
 .debug_info    0x00079ffd      0xfeb ./build/stm32h7xx_hal_dma.o
 .debug_info    0x0007afe8      0xec5 ./build/stm32h7xx_hal_mdma.o
 .debug_info    0x0007bead      0x80f ./build/stm32h7xx_hal_mmc_ex.o
 .debug_info    0x0007c6bc     0x34fd ./build/stm32h7xx_hal_adc_ex.o
 .debug_info    0x0007fbb9     0x1e53 ./build/stm32h7xx_hal_tim_ex.o
 .debug_info    0x00081a0c     0x16bd ./build/stm32h7xx_hal_eth_ex.o
 .debug_info    0x000830c9       0x80 ./build/stm32h7xx_ll_fmac.o
 .debug_info    0x00083149      0x271 ./build/stm32h7xx_ll_delayblock.o
 .debug_info    0x000833ba     0x11c2 ./build/stm32h7xx_ll_dma2d.o
 .debug_info    0x0008457c     0x28ac ./build/stm32h7xx_hal_hash.o
 .debug_info    0x00086e28     0x124d ./build/stm32h7xx_ll_mdma.o
 .debug_info    0x00088075      0xd8a ./build/stm32h7xx_hal_cryp_ex.o
 .debug_info    0x00088dff     0x1b6c ./build/stm32h7xx_hal_sai.o
 .debug_info    0x0008a96b       0x80 ./build/stm32h7xx_hal_gfxmmu.o
 .debug_info    0x0008a9eb     0x1629 ./build/stm32h7xx_ll_utils.o
 .debug_info    0x0008c014      0xd66 ./build/stm32h7xx_hal_gpio.o
 .debug_info    0x0008cd7a     0x26d4 ./build/stm32h7xx_hal_jpeg.o
 .debug_info    0x0008f44e       0x80 ./build/stm32h7xx_hal_ospi.o
 .debug_info    0x0008f4ce      0x211 ./build/stm32h7xx_ll_opamp.o
 .debug_info    0x0008f6df     0x3344 ./build/stm32h7xx_hal_adc.o
 .debug_info    0x00092a23      0xa61 ./build/stm32h7xx_hal_pcd_ex.o
 .debug_info    0x00093484      0x7d1 ./build/stm32h7xx_ll_dac.o
 .debug_info    0x00093c55      0xa5b ./build/stm32h7xx_hal_usart_ex.o
 .debug_info    0x000946b0      0x388 ./build/stm32h7xx_hal_crc_ex.o
 .debug_info    0x00094a38     0x171a ./build/stm32h7xx_hal_rtc_ex.o
 .debug_info    0x00096152       0x80 ./build/stm32h7xx_hal_otfdec.o
 .debug_info    0x000961d2       0x43 ./build/main.o
 .debug_info    0x00096215      0x145 ./build/stm32h7xx_it.o
 .debug_info    0x0009635a     0x2e4a ./build/stm32h7xx_hal_msp.o
 .debug_info    0x000991a4      0x8be ./build/bmi088_sample.o
 .debug_info    0x00099a62     0x12c1 ./build/sensor_intf_bmi088.o
 .debug_info    0x0009ad23     0x1be3 ./build/bmi088.o
 .debug_info    0x0009c906     0x117c ./build/board.o
 .debug_info    0x0009da82      0xfe1 ./build/sensor_intf_hmc5883l.o
 .debug_info    0x0009ea63      0xeb0 ./build/hmc5883l.o
 .debug_info    0x0009f913     0x1109 ./build/sensor_intf_mmc5983ma.o
 .debug_info    0x000a0a1c      0xc33 ./build/mmc5983ma.o
 .debug_info    0x000a164f      0xaee ./build/spl06_001.o
 .debug_info    0x000a213d     0x19e0 ./build/dfs.o
 .debug_info    0x000a3b1d      0x41e ./build/select.o
 .debug_info    0x000a3f3b     0x2095 ./build/dfs_file.o
 .debug_info    0x000a5fd0     0x1495 ./build/poll.o
 .debug_info    0x000a7465     0x1e6e ./build/dfs_posix.o
 .debug_info    0x000a92d3     0x18d3 ./build/dfs_fs.o
 .debug_info    0x000aaba6     0x12e0 ./build/audio_pipe.o
 .debug_info    0x000abe86     0x1c11 ./build/audio.o
 .debug_info    0x000ada97     0x26f8 ./build/can.o
 .debug_info    0x000b018f      0xc78 ./build/i2c_dev.o
 .debug_info    0x000b0e07     0x1615 ./build/i2c-bit-ops.o
 .debug_info    0x000b241c      0xd5c ./build/i2c_core.o
 .debug_info    0x000b3178      0x973 ./build/completion.o
 .debug_info    0x000b3aeb      0xaf1 ./build/waitqueue.o
 .debug_info    0x000b45dc      0xfc0 ./build/pipe.o
 .debug_info    0x000b559c      0xa45 ./build/ringbuffer.o
 .debug_info    0x000b5fe1     0x12bb ./build/dataqueue.o
 .debug_info    0x000b729c     0x1527 ./build/workqueue.o
 .debug_info    0x000b87c3     0x1447 ./build/ringblk_buf.o
 .debug_info    0x000b9c0a      0xd66 ./build/adc.o
 .debug_info    0x000ba970      0xd39 ./build/pin.o
 .debug_info    0x000bb6a9     0x2a98 ./build/sd.o
 .debug_info    0x000be141     0x3741 ./build/sdio.o
 .debug_info    0x000c1882     0x243d ./build/mmc.o
 .debug_info    0x000c3cbf     0x24af ./build/mmcsd_core.o
 .debug_info    0x000c616e     0x1e9e ./build/block_dev.o
 .debug_info    0x000c800c     0x2699 ./build/sensor_cmd.o
 .debug_info    0x000ca6a5     0x150f ./build/sensor.o
 .debug_info    0x000cbbb4     0x207a ./build/serial_v2.o
 .debug_info    0x000cdc2e     0x1482 ./build/spi_core.o
 .debug_info    0x000cf0b0     0x23bb ./build/spi_msd.o
 .debug_info    0x000d146b      0xe5a ./build/spi_dev.o
 .debug_info    0x000d22c5     0x1de8 ./build/winusb.o
 .debug_info    0x000d40ad     0x227f ./build/audio_mic.o
 .debug_info    0x000d632c       0x72 ./build/cdc_vcom.o
 .debug_info    0x000d639e       0x72 ./build/hid.o
 .debug_info    0x000d6410      0x142 ./build/mstorage.o
 .debug_info    0x000d6552     0x226a ./build/audio_speaker.o
 .debug_info    0x000d87bc       0x72 ./build/ecm.o
 .debug_info    0x000d882e       0x72 ./build/rndis.o
 .debug_info    0x000d88a0     0x7246 ./build/usbdevice_core.o
 .debug_info    0x000dfae6     0x1194 ./build/usbdevice.o
 .debug_info    0x000e0c7a     0x26c2 ./build/cmd.o
 .debug_info    0x000e333c      0x9c0 ./build/msh.o
 .debug_info    0x000e3cfc     0x14c4 ./build/shell.o
 .debug_info    0x000e51c0       0x6b ./build/msh_file.o
 .debug_info    0x000e522b      0x941 ./build/cpuport.o
 .debug_info    0x000e5b6c      0x678 ./build/components.o
 .debug_info    0x000e61e4     0x1282 ./build/timer.o
 .debug_info    0x000e7466     0x18c0 ./build/thread.o
 .debug_info    0x000e8d26       0x6b ./build/slab.o
 .debug_info    0x000e8d91       0x6b ./build/memheap.o
 .debug_info    0x000e8dfc      0xdf8 ./build/object.o
 .debug_info    0x000e9bf4       0x72 ./build/signal.o
 .debug_info    0x000e9c66       0x6b ./build/cpu.o
 .debug_info    0x000e9cd1      0xf84 ./build/device.o
 .debug_info    0x000eac55     0x6255 ./build/ipc.o
 .debug_info    0x000f0eaa     0x2113 ./build/kservice.o
 .debug_info    0x000f2fbd      0x512 ./build/clock.o
 .debug_info    0x000f34cf      0xb05 ./build/scheduler.o
 .debug_info    0x000f3fd4      0x20c ./build/irq.o
 .debug_info    0x000f41e0     0x1093 ./build/mempool.o
 .debug_info    0x000f5273      0x83d ./build/idle.o
 .debug_info    0x000f5ab0      0xcb5 ./build/mem.o
 .debug_info    0x000f6765       0x22 ./build/startup_stm32h750xx.o
 .debug_info    0x000f6787       0x26 ./build/context_gcc.o

.debug_abbrev   0x00000000    0x1be49
 .debug_abbrev  0x00000000      0x437 ./build/drv_sdio.o
 .debug_abbrev  0x00000437      0x418 ./build/drv_usart_v2.o
 .debug_abbrev  0x0000084f      0x276 ./build/drv_soft_i2c.o
 .debug_abbrev  0x00000ac5      0x407 ./build/drv_gpio.o
 .debug_abbrev  0x00000ecc      0x33e ./build/drv_spi.o
 .debug_abbrev  0x0000120a       0x26 ./build/drv_adc.o
 .debug_abbrev  0x00001230      0x2e0 ./build/drv_common.o
 .debug_abbrev  0x00001510      0x3ca ./build/drv_fdcan.o
 .debug_abbrev  0x000018da       0x26 ./build/drv_flash_h7.o
 .debug_abbrev  0x00001900      0x14a ./build/system_stm32h7xx.o
 .debug_abbrev  0x00001a4a      0x2a1 ./build/stm32h7xx_ll_dma.o
 .debug_abbrev  0x00001ceb      0x299 ./build/stm32h7xx_hal_cryp.o
 .debug_abbrev  0x00001f84      0x23e ./build/stm32h7xx_hal_hrtim.o
 .debug_abbrev  0x000021c2      0x264 ./build/stm32h7xx_hal.o
 .debug_abbrev  0x00002426      0x278 ./build/stm32h7xx_hal_rcc_ex.o
 .debug_abbrev  0x0000269e      0x2b2 ./build/stm32h7xx_hal_fdcan.o
 .debug_abbrev  0x00002950      0x1f9 ./build/stm32h7xx_hal_sd_ex.o
 .debug_abbrev  0x00002b49      0x29d ./build/stm32h7xx_hal_hcd.o
 .debug_abbrev  0x00002de6      0x22b ./build/stm32h7xx_hal_tim.o
 .debug_abbrev  0x00003011      0x2b5 ./build/stm32h7xx_hal_pcd.o
 .debug_abbrev  0x000032c6      0x24d ./build/stm32h7xx_hal_dcmi.o
 .debug_abbrev  0x00003513      0x288 ./build/stm32h7xx_hal_usart.o
 .debug_abbrev  0x0000379b      0x1ed ./build/stm32h7xx_hal_crc.o
 .debug_abbrev  0x00003988      0x188 ./build/stm32h7xx_hal_opamp_ex.o
 .debug_abbrev  0x00003b10      0x1c6 ./build/stm32h7xx_hal_dac.o
 .debug_abbrev  0x00003cd6      0x29b ./build/stm32h7xx_hal_pwr_ex.o
 .debug_abbrev  0x00003f71       0x26 ./build/stm32h7xx_hal_cordic.o
 .debug_abbrev  0x00003f97       0x26 ./build/stm32h7xx_hal_dsi.o
 .debug_abbrev  0x00003fbd      0x217 ./build/stm32h7xx_ll_adc.o
 .debug_abbrev  0x000041d4      0x1f6 ./build/stm32h7xx_ll_swpmi.o
 .debug_abbrev  0x000043ca       0x44 ./build/stm32h7xx_hal_msp_template.o
 .debug_abbrev  0x0000440e      0x180 ./build/stm32h7xx_hal_opamp.o
 .debug_abbrev  0x0000458e      0x27f ./build/stm32h7xx_hal_rcc.o
 .debug_abbrev  0x0000480d      0x1e2 ./build/stm32h7xx_hal_exti.o
 .debug_abbrev  0x000049ef      0x260 ./build/stm32h7xx_hal_sd.o
 .debug_abbrev  0x00004c4f      0x252 ./build/stm32h7xx_ll_lpuart.o
 .debug_abbrev  0x00004ea1      0x2b0 ./build/stm32h7xx_hal_eth.o
 .debug_abbrev  0x00005151      0x241 ./build/stm32h7xx_hal_dma2d.o
 .debug_abbrev  0x00005392      0x252 ./build/stm32h7xx_hal_i2c.o
 .debug_abbrev  0x000055e4      0x15b ./build/stm32h7xx_hal_iwdg.o
 .debug_abbrev  0x0000573f      0x289 ./build/stm32h7xx_hal_flash.o
 .debug_abbrev  0x000059c8      0x2a6 ./build/stm32h7xx_hal_smartcard.o
 .debug_abbrev  0x00005c6e      0x189 ./build/stm32h7xx_hal_pwr.o
 .debug_abbrev  0x00005df7      0x1e6 ./build/stm32h7xx_hal_rtc.o
 .debug_abbrev  0x00005fdd      0x1ad ./build/stm32h7xx_hal_ramecc.o
 .debug_abbrev  0x0000618a      0x2f3 ./build/stm32h7xx_ll_usart.o
 .debug_abbrev  0x0000647d      0x241 ./build/stm32h7xx_hal_spdifrx.o
 .debug_abbrev  0x000066be      0x191 ./build/stm32h7xx_ll_crc.o
 .debug_abbrev  0x0000684f      0x1e6 ./build/stm32h7xx_hal_mdios.o
 .debug_abbrev  0x00006a35      0x183 ./build/stm32h7xx_hal_spi_ex.o
 .debug_abbrev  0x00006bb8       0x26 ./build/stm32h7xx_ll_cordic.o
 .debug_abbrev  0x00006bde      0x2e7 ./build/stm32h7xx_hal_uart_ex.o
 .debug_abbrev  0x00006ec5      0x25d ./build/stm32h7xx_hal_dfsdm.o
 .debug_abbrev  0x00007122      0x37d ./build/stm32h7xx_hal_cortex.o
 .debug_abbrev  0x0000749f      0x1e7 ./build/stm32h7xx_hal_hsem.o
 .debug_abbrev  0x00007686      0x1ac ./build/stm32h7xx_ll_fmc.o
 .debug_abbrev  0x00007832       0x26 ./build/stm32h7xx_hal_rng_ex.o
 .debug_abbrev  0x00007858      0x229 ./build/stm32h7xx_hal_smartcard_ex.o
 .debug_abbrev  0x00007a81      0x14a ./build/stm32h7xx_ll_crs.o
 .debug_abbrev  0x00007bcb      0x28b ./build/stm32h7xx_hal_lptim.o
 .debug_abbrev  0x00007e56      0x20a ./build/stm32h7xx_ll_i2c.o
 .debug_abbrev  0x00008060      0x1c2 ./build/stm32h7xx_hal_comp.o
 .debug_abbrev  0x00008222      0x28c ./build/stm32h7xx_ll_gpio.o
 .debug_abbrev  0x000084ae      0x2c3 ./build/stm32h7xx_hal_mmc.o
 .debug_abbrev  0x00008771      0x279 ./build/stm32h7xx_hal_spi.o
 .debug_abbrev  0x000089ea      0x2f9 ./build/stm32h7xx_ll_rtc.o
 .debug_abbrev  0x00008ce3      0x337 ./build/stm32h7xx_hal_uart.o
 .debug_abbrev  0x0000901a      0x22d ./build/stm32h7xx_hal_sdram.o
 .debug_abbrev  0x00009247      0x19b ./build/stm32h7xx_hal_wwdg.o
 .debug_abbrev  0x000093e2       0xb8 ./build/stm32h7xx_ll_pwr.o
 .debug_abbrev  0x0000949a      0x19d ./build/stm32h7xx_hal_smbus_ex.o
 .debug_abbrev  0x00009637       0x26 ./build/stm32h7xx_hal_pssi.o
 .debug_abbrev  0x0000965d      0x1b8 ./build/stm32h7xx_hal_rng.o
 .debug_abbrev  0x00009815      0x273 ./build/stm32h7xx_hal_flash_ex.o
 .debug_abbrev  0x00009a88      0x2e4 ./build/stm32h7xx_ll_rcc.o
 .debug_abbrev  0x00009d6c      0x2cb ./build/stm32h7xx_ll_usb.o
 .debug_abbrev  0x0000a037      0x279 ./build/stm32h7xx_hal_irda.o
 .debug_abbrev  0x0000a2b0      0x209 ./build/stm32h7xx_hal_nor.o
 .debug_abbrev  0x0000a4b9      0x201 ./build/stm32h7xx_ll_exti.o
 .debug_abbrev  0x0000a6ba      0x1de ./build/stm32h7xx_hal_smbus.o
 .debug_abbrev  0x0000a898      0x16b ./build/stm32h7xx_ll_comp.o
 .debug_abbrev  0x0000aa03      0x1a0 ./build/stm32h7xx_hal_cec.o
 .debug_abbrev  0x0000aba3      0x288 ./build/stm32h7xx_ll_spi.o
 .debug_abbrev  0x0000ae2b      0x2bc ./build/stm32h7xx_ll_lptim.o
 .debug_abbrev  0x0000b0e7       0x26 ./build/stm32h7xx_hal_dfsdm_ex.o
 .debug_abbrev  0x0000b10d       0x26 ./build/stm32h7xx_hal_dts.o
 .debug_abbrev  0x0000b133      0x19f ./build/stm32h7xx_ll_hrtim.o
 .debug_abbrev  0x0000b2d2      0x20d ./build/stm32h7xx_hal_dac_ex.o
 .debug_abbrev  0x0000b4df      0x2d6 ./build/stm32h7xx_ll_tim.o
 .debug_abbrev  0x0000b7b5       0x26 ./build/stm32h7xx_hal_fmac.o
 .debug_abbrev  0x0000b7db      0x1e4 ./build/stm32h7xx_hal_i2c_ex.o
 .debug_abbrev  0x0000b9bf      0x271 ./build/stm32h7xx_ll_bdma.o
 .debug_abbrev  0x0000bc30      0x200 ./build/stm32h7xx_hal_sram.o
 .debug_abbrev  0x0000be30      0x207 ./build/stm32h7xx_hal_dma_ex.o
 .debug_abbrev  0x0000c037      0x1de ./build/stm32h7xx_ll_rng.o
 .debug_abbrev  0x0000c215       0x26 ./build/stm32h7xx_hal_ltdc_ex.o
 .debug_abbrev  0x0000c23b      0x24b ./build/stm32h7xx_hal_swpmi.o
 .debug_abbrev  0x0000c486      0x1a6 ./build/stm32h7xx_hal_hash_ex.o
 .debug_abbrev  0x0000c62c      0x206 ./build/stm32h7xx_hal_qspi.o
 .debug_abbrev  0x0000c832      0x234 ./build/stm32h7xx_hal_nand.o
 .debug_abbrev  0x0000ca66      0x212 ./build/stm32h7xx_hal_i2s.o
 .debug_abbrev  0x0000cc78      0x16c ./build/stm32h7xx_hal_sai_ex.o
 .debug_abbrev  0x0000cde4      0x245 ./build/stm32h7xx_ll_sdmmc.o
 .debug_abbrev  0x0000d029      0x239 ./build/stm32h7xx_hal_ltdc.o
 .debug_abbrev  0x0000d262      0x298 ./build/stm32h7xx_hal_dma.o
 .debug_abbrev  0x0000d4fa      0x23a ./build/stm32h7xx_hal_mdma.o
 .debug_abbrev  0x0000d734      0x1f4 ./build/stm32h7xx_hal_mmc_ex.o
 .debug_abbrev  0x0000d928      0x380 ./build/stm32h7xx_hal_adc_ex.o
 .debug_abbrev  0x0000dca8      0x241 ./build/stm32h7xx_hal_tim_ex.o
 .debug_abbrev  0x0000dee9      0x1fc ./build/stm32h7xx_hal_eth_ex.o
 .debug_abbrev  0x0000e0e5       0x26 ./build/stm32h7xx_ll_fmac.o
 .debug_abbrev  0x0000e10b      0x11d ./build/stm32h7xx_ll_delayblock.o
 .debug_abbrev  0x0000e228      0x2ee ./build/stm32h7xx_ll_dma2d.o
 .debug_abbrev  0x0000e516      0x285 ./build/stm32h7xx_hal_hash.o
 .debug_abbrev  0x0000e79b      0x21b ./build/stm32h7xx_ll_mdma.o
 .debug_abbrev  0x0000e9b6      0x264 ./build/stm32h7xx_hal_cryp_ex.o
 .debug_abbrev  0x0000ec1a      0x261 ./build/stm32h7xx_hal_sai.o
 .debug_abbrev  0x0000ee7b       0x26 ./build/stm32h7xx_hal_gfxmmu.o
 .debug_abbrev  0x0000eea1      0x2a9 ./build/stm32h7xx_ll_utils.o
 .debug_abbrev  0x0000f14a      0x239 ./build/stm32h7xx_hal_gpio.o
 .debug_abbrev  0x0000f383      0x23f ./build/stm32h7xx_hal_jpeg.o
 .debug_abbrev  0x0000f5c2       0x26 ./build/stm32h7xx_hal_ospi.o
 .debug_abbrev  0x0000f5e8      0x151 ./build/stm32h7xx_ll_opamp.o
 .debug_abbrev  0x0000f739      0x2ca ./build/stm32h7xx_hal_adc.o
 .debug_abbrev  0x0000fa03      0x26d ./build/stm32h7xx_hal_pcd_ex.o
 .debug_abbrev  0x0000fc70      0x1e2 ./build/stm32h7xx_ll_dac.o
 .debug_abbrev  0x0000fe52      0x23d ./build/stm32h7xx_hal_usart_ex.o
 .debug_abbrev  0x0001008f      0x160 ./build/stm32h7xx_hal_crc_ex.o
 .debug_abbrev  0x000101ef      0x1f1 ./build/stm32h7xx_hal_rtc_ex.o
 .debug_abbrev  0x000103e0       0x26 ./build/stm32h7xx_hal_otfdec.o
 .debug_abbrev  0x00010406       0x3b ./build/main.o
 .debug_abbrev  0x00010441       0x7e ./build/stm32h7xx_it.o
 .debug_abbrev  0x000104bf      0x23a ./build/stm32h7xx_hal_msp.o
 .debug_abbrev  0x000106f9      0x1bf ./build/bmi088_sample.o
 .debug_abbrev  0x000108b8      0x26a ./build/sensor_intf_bmi088.o
 .debug_abbrev  0x00010b22      0x340 ./build/bmi088.o
 .debug_abbrev  0x00010e62      0x24f ./build/board.o
 .debug_abbrev  0x000110b1      0x290 ./build/sensor_intf_hmc5883l.o
 .debug_abbrev  0x00011341      0x24a ./build/hmc5883l.o
 .debug_abbrev  0x0001158b      0x251 ./build/sensor_intf_mmc5983ma.o
 .debug_abbrev  0x000117dc      0x1e0 ./build/mmc5983ma.o
 .debug_abbrev  0x000119bc      0x215 ./build/spl06_001.o
 .debug_abbrev  0x00011bd1      0x345 ./build/dfs.o
 .debug_abbrev  0x00011f16      0x176 ./build/select.o
 .debug_abbrev  0x0001208c      0x338 ./build/dfs_file.o
 .debug_abbrev  0x000123c4      0x28a ./build/poll.o
 .debug_abbrev  0x0001264e      0x319 ./build/dfs_posix.o
 .debug_abbrev  0x00012967      0x2ea ./build/dfs_fs.o
 .debug_abbrev  0x00012c51      0x31c ./build/audio_pipe.o
 .debug_abbrev  0x00012f6d      0x344 ./build/audio.o
 .debug_abbrev  0x000132b1      0x437 ./build/can.o
 .debug_abbrev  0x000136e8      0x1f6 ./build/i2c_dev.o
 .debug_abbrev  0x000138de      0x3a0 ./build/i2c-bit-ops.o
 .debug_abbrev  0x00013c7e      0x22b ./build/i2c_core.o
 .debug_abbrev  0x00013ea9      0x21f ./build/completion.o
 .debug_abbrev  0x000140c8      0x27e ./build/waitqueue.o
 .debug_abbrev  0x00014346      0x2be ./build/pipe.o
 .debug_abbrev  0x00014604      0x273 ./build/ringbuffer.o
 .debug_abbrev  0x00014877      0x2f5 ./build/dataqueue.o
 .debug_abbrev  0x00014b6c      0x321 ./build/workqueue.o
 .debug_abbrev  0x00014e8d      0x356 ./build/ringblk_buf.o
 .debug_abbrev  0x000151e3      0x271 ./build/adc.o
 .debug_abbrev  0x00015454      0x218 ./build/pin.o
 .debug_abbrev  0x0001566c      0x3ae ./build/sd.o
 .debug_abbrev  0x00015a1a      0x491 ./build/sdio.o
 .debug_abbrev  0x00015eab      0x37a ./build/mmc.o
 .debug_abbrev  0x00016225      0x452 ./build/mmcsd_core.o
 .debug_abbrev  0x00016677      0x37a ./build/block_dev.o
 .debug_abbrev  0x000169f1      0x2e9 ./build/sensor_cmd.o
 .debug_abbrev  0x00016cda      0x2f1 ./build/sensor.o
 .debug_abbrev  0x00016fcb      0x2db ./build/serial_v2.o
 .debug_abbrev  0x000172a6      0x296 ./build/spi_core.o
 .debug_abbrev  0x0001753c      0x33b ./build/spi_msd.o
 .debug_abbrev  0x00017877      0x22f ./build/spi_dev.o
 .debug_abbrev  0x00017aa6      0x433 ./build/winusb.o
 .debug_abbrev  0x00017ed9      0x343 ./build/audio_mic.o
 .debug_abbrev  0x0001821c       0x26 ./build/cdc_vcom.o
 .debug_abbrev  0x00018242       0x26 ./build/hid.o
 .debug_abbrev  0x00018268       0x93 ./build/mstorage.o
 .debug_abbrev  0x000182fb      0x343 ./build/audio_speaker.o
 .debug_abbrev  0x0001863e       0x26 ./build/ecm.o
 .debug_abbrev  0x00018664       0x26 ./build/rndis.o
 .debug_abbrev  0x0001868a      0x4ab ./build/usbdevice_core.o
 .debug_abbrev  0x00018b35      0x2b5 ./build/usbdevice.o
 .debug_abbrev  0x00018dea      0x37f ./build/cmd.o
 .debug_abbrev  0x00019169      0x2a7 ./build/msh.o
 .debug_abbrev  0x00019410      0x3db ./build/shell.o
 .debug_abbrev  0x000197eb       0x26 ./build/msh_file.o
 .debug_abbrev  0x00019811      0x2af ./build/cpuport.o
 .debug_abbrev  0x00019ac0      0x1fa ./build/components.o
 .debug_abbrev  0x00019cba      0x3c4 ./build/timer.o
 .debug_abbrev  0x0001a07e      0x2c9 ./build/thread.o
 .debug_abbrev  0x0001a347       0x26 ./build/slab.o
 .debug_abbrev  0x0001a36d       0x26 ./build/memheap.o
 .debug_abbrev  0x0001a393      0x29f ./build/object.o
 .debug_abbrev  0x0001a632       0x26 ./build/signal.o
 .debug_abbrev  0x0001a658       0x26 ./build/cpu.o
 .debug_abbrev  0x0001a67e      0x208 ./build/device.o
 .debug_abbrev  0x0001a886      0x2da ./build/ipc.o
 .debug_abbrev  0x0001ab60      0x468 ./build/kservice.o
 .debug_abbrev  0x0001afc8      0x1cd ./build/clock.o
 .debug_abbrev  0x0001b195      0x314 ./build/scheduler.o
 .debug_abbrev  0x0001b4a9      0x138 ./build/irq.o
 .debug_abbrev  0x0001b5e1      0x2f8 ./build/mempool.o
 .debug_abbrev  0x0001b8d9      0x2ec ./build/idle.o
 .debug_abbrev  0x0001bbc5      0x25e ./build/mem.o
 .debug_abbrev  0x0001be23       0x12 ./build/startup_stm32h750xx.o
 .debug_abbrev  0x0001be35       0x14 ./build/context_gcc.o

.debug_loc      0x00000000    0x997db
 .debug_loc     0x00000000      0x75b ./build/drv_sdio.o
 .debug_loc     0x0000075b      0xee3 ./build/drv_usart_v2.o
 .debug_loc     0x0000163e      0x3e8 ./build/drv_soft_i2c.o
 .debug_loc     0x00001a26      0xc52 ./build/drv_gpio.o
 .debug_loc     0x00002678      0x6ef ./build/drv_spi.o
 .debug_loc     0x00002d67      0x203 ./build/drv_common.o
 .debug_loc     0x00002f6a      0x850 ./build/drv_fdcan.o
 .debug_loc     0x000037ba      0x1a0 ./build/system_stm32h7xx.o
 .debug_loc     0x0000395a      0x6bc ./build/stm32h7xx_ll_dma.o
 .debug_loc     0x00004016     0x2e60 ./build/stm32h7xx_hal_cryp.o
 .debug_loc     0x00006e76     0x5b95 ./build/stm32h7xx_hal_hrtim.o
 .debug_loc     0x0000ca0b      0x3fa ./build/stm32h7xx_hal.o
 .debug_loc     0x0000ce05     0x19dc ./build/stm32h7xx_hal_rcc_ex.o
 .debug_loc     0x0000e7e1     0x3675 ./build/stm32h7xx_hal_fdcan.o
 .debug_loc     0x00011e56      0x459 ./build/stm32h7xx_hal_sd_ex.o
 .debug_loc     0x000122af     0x11bf ./build/stm32h7xx_hal_hcd.o
 .debug_loc     0x0001346e     0x567b ./build/stm32h7xx_hal_tim.o
 .debug_loc     0x00018ae9     0x13f2 ./build/stm32h7xx_hal_pcd.o
 .debug_loc     0x00019edb      0x69e ./build/stm32h7xx_hal_dcmi.o
 .debug_loc     0x0001a579     0x220c ./build/stm32h7xx_hal_usart.o
 .debug_loc     0x0001c785      0x5b5 ./build/stm32h7xx_hal_crc.o
 .debug_loc     0x0001cd3a      0x2e1 ./build/stm32h7xx_hal_opamp_ex.o
 .debug_loc     0x0001d01b      0x8af ./build/stm32h7xx_hal_dac.o
 .debug_loc     0x0001d8ca      0x4df ./build/stm32h7xx_hal_pwr_ex.o
 .debug_loc     0x0001dda9      0x5e6 ./build/stm32h7xx_ll_adc.o
 .debug_loc     0x0001e38f      0x1a4 ./build/stm32h7xx_ll_swpmi.o
 .debug_loc     0x0001e533      0x599 ./build/stm32h7xx_hal_opamp.o
 .debug_loc     0x0001eacc      0x8e3 ./build/stm32h7xx_hal_rcc.o
 .debug_loc     0x0001f3af      0xde3 ./build/stm32h7xx_hal_exti.o
 .debug_loc     0x00020192     0x2272 ./build/stm32h7xx_hal_sd.o
 .debug_loc     0x00022404      0x2c2 ./build/stm32h7xx_ll_lpuart.o
 .debug_loc     0x000226c6     0x1843 ./build/stm32h7xx_hal_eth.o
 .debug_loc     0x00023f09     0x142a ./build/stm32h7xx_hal_dma2d.o
 .debug_loc     0x00025333     0x47c7 ./build/stm32h7xx_hal_i2c.o
 .debug_loc     0x00029afa       0x86 ./build/stm32h7xx_hal_iwdg.o
 .debug_loc     0x00029b80      0x72d ./build/stm32h7xx_hal_flash.o
 .debug_loc     0x0002a2ad     0x1377 ./build/stm32h7xx_hal_smartcard.o
 .debug_loc     0x0002b624       0x57 ./build/stm32h7xx_hal_pwr.o
 .debug_loc     0x0002b67b      0xd90 ./build/stm32h7xx_hal_rtc.o
 .debug_loc     0x0002c40b      0x4bc ./build/stm32h7xx_hal_ramecc.o
 .debug_loc     0x0002c8c7      0x832 ./build/stm32h7xx_ll_usart.o
 .debug_loc     0x0002d0f9      0xf32 ./build/stm32h7xx_hal_spdifrx.o
 .debug_loc     0x0002e02b       0x8b ./build/stm32h7xx_ll_crc.o
 .debug_loc     0x0002e0b6      0x399 ./build/stm32h7xx_hal_mdios.o
 .debug_loc     0x0002e44f      0x22a ./build/stm32h7xx_hal_spi_ex.o
 .debug_loc     0x0002e679      0xc21 ./build/stm32h7xx_hal_uart_ex.o
 .debug_loc     0x0002f29a     0x20dc ./build/stm32h7xx_hal_dfsdm.o
 .debug_loc     0x00031376      0x726 ./build/stm32h7xx_hal_cortex.o
 .debug_loc     0x00031a9c      0x117 ./build/stm32h7xx_hal_hsem.o
 .debug_loc     0x00031bb3      0x753 ./build/stm32h7xx_ll_fmc.o
 .debug_loc     0x00032306      0x2e2 ./build/stm32h7xx_hal_smartcard_ex.o
 .debug_loc     0x000325e8       0x2c ./build/stm32h7xx_ll_crs.o
 .debug_loc     0x00032614      0xbe0 ./build/stm32h7xx_hal_lptim.o
 .debug_loc     0x000331f4      0x31f ./build/stm32h7xx_ll_i2c.o
 .debug_loc     0x00033513      0x588 ./build/stm32h7xx_hal_comp.o
 .debug_loc     0x00033a9b      0x5d8 ./build/stm32h7xx_ll_gpio.o
 .debug_loc     0x00034073     0x32c5 ./build/stm32h7xx_hal_mmc.o
 .debug_loc     0x00037338     0x1db0 ./build/stm32h7xx_hal_spi.o
 .debug_loc     0x000390e8     0x1822 ./build/stm32h7xx_ll_rtc.o
 .debug_loc     0x0003a90a     0x5d9b ./build/stm32h7xx_hal_uart.o
 .debug_loc     0x000406a5      0xfad ./build/stm32h7xx_hal_sdram.o
 .debug_loc     0x00041652       0xa6 ./build/stm32h7xx_hal_wwdg.o
 .debug_loc     0x000416f8       0xbe ./build/stm32h7xx_hal_smbus_ex.o
 .debug_loc     0x000417b6      0x364 ./build/stm32h7xx_hal_rng.o
 .debug_loc     0x00041b1a      0x906 ./build/stm32h7xx_hal_flash_ex.o
 .debug_loc     0x00042420     0x1896 ./build/stm32h7xx_ll_rcc.o
 .debug_loc     0x00043cb6     0x2504 ./build/stm32h7xx_ll_usb.o
 .debug_loc     0x000461ba     0x13d2 ./build/stm32h7xx_hal_irda.o
 .debug_loc     0x0004758c     0x1043 ./build/stm32h7xx_hal_nor.o
 .debug_loc     0x000485cf      0x50a ./build/stm32h7xx_ll_exti.o
 .debug_loc     0x00048ad9     0x1406 ./build/stm32h7xx_hal_smbus.o
 .debug_loc     0x00049edf      0x15b ./build/stm32h7xx_ll_comp.o
 .debug_loc     0x0004a03a      0x3d2 ./build/stm32h7xx_hal_cec.o
 .debug_loc     0x0004a40c      0x759 ./build/stm32h7xx_ll_spi.o
 .debug_loc     0x0004ab65      0x6bb ./build/stm32h7xx_ll_lptim.o
 .debug_loc     0x0004b220       0x55 ./build/stm32h7xx_ll_hrtim.o
 .debug_loc     0x0004b275      0x965 ./build/stm32h7xx_hal_dac_ex.o
 .debug_loc     0x0004bbda     0x160e ./build/stm32h7xx_ll_tim.o
 .debug_loc     0x0004d1e8      0x202 ./build/stm32h7xx_hal_i2c_ex.o
 .debug_loc     0x0004d3ea      0x599 ./build/stm32h7xx_ll_bdma.o
 .debug_loc     0x0004d983      0xee9 ./build/stm32h7xx_hal_sram.o
 .debug_loc     0x0004e86c      0x7df ./build/stm32h7xx_hal_dma_ex.o
 .debug_loc     0x0004f04b       0xaf ./build/stm32h7xx_ll_rng.o
 .debug_loc     0x0004f0fa     0x113c ./build/stm32h7xx_hal_swpmi.o
 .debug_loc     0x00050236     0x1242 ./build/stm32h7xx_hal_hash_ex.o
 .debug_loc     0x00051478     0x1527 ./build/stm32h7xx_hal_qspi.o
 .debug_loc     0x0005299f     0x175f ./build/stm32h7xx_hal_nand.o
 .debug_loc     0x000540fe     0x1365 ./build/stm32h7xx_hal_i2s.o
 .debug_loc     0x00055463       0xcf ./build/stm32h7xx_hal_sai_ex.o
 .debug_loc     0x00055532     0x126a ./build/stm32h7xx_ll_sdmmc.o
 .debug_loc     0x0005679c     0x185d ./build/stm32h7xx_hal_ltdc.o
 .debug_loc     0x00057ff9      0xe96 ./build/stm32h7xx_hal_dma.o
 .debug_loc     0x00058e8f     0x11a3 ./build/stm32h7xx_hal_mdma.o
 .debug_loc     0x0005a032      0x459 ./build/stm32h7xx_hal_mmc_ex.o
 .debug_loc     0x0005a48b     0x2a25 ./build/stm32h7xx_hal_adc_ex.o
 .debug_loc     0x0005ceb0     0x257f ./build/stm32h7xx_hal_tim_ex.o
 .debug_loc     0x0005f42f      0x625 ./build/stm32h7xx_hal_eth_ex.o
 .debug_loc     0x0005fa54      0x1f1 ./build/stm32h7xx_ll_delayblock.o
 .debug_loc     0x0005fc45      0x97f ./build/stm32h7xx_ll_dma2d.o
 .debug_loc     0x000605c4     0x2e30 ./build/stm32h7xx_hal_hash.o
 .debug_loc     0x000633f4      0x6c8 ./build/stm32h7xx_ll_mdma.o
 .debug_loc     0x00063abc      0x6f8 ./build/stm32h7xx_hal_cryp_ex.o
 .debug_loc     0x000641b4     0x16fe ./build/stm32h7xx_hal_sai.o
 .debug_loc     0x000658b2      0x910 ./build/stm32h7xx_ll_utils.o
 .debug_loc     0x000661c2      0x3c6 ./build/stm32h7xx_hal_gpio.o
 .debug_loc     0x00066588     0x2a5f ./build/stm32h7xx_hal_jpeg.o
 .debug_loc     0x00068fe7       0xa6 ./build/stm32h7xx_ll_opamp.o
 .debug_loc     0x0006908d     0x24b3 ./build/stm32h7xx_hal_adc.o
 .debug_loc     0x0006b540      0x236 ./build/stm32h7xx_hal_pcd_ex.o
 .debug_loc     0x0006b776      0x17b ./build/stm32h7xx_ll_dac.o
 .debug_loc     0x0006b8f1      0x33d ./build/stm32h7xx_hal_usart_ex.o
 .debug_loc     0x0006bc2e      0x1fe ./build/stm32h7xx_hal_crc_ex.o
 .debug_loc     0x0006be2c     0x1037 ./build/stm32h7xx_hal_rtc_ex.o
 .debug_loc     0x0006ce63      0x299 ./build/stm32h7xx_hal_msp.o
 .debug_loc     0x0006d0fc       0x25 ./build/bmi088_sample.o
 .debug_loc     0x0006d121      0x708 ./build/sensor_intf_bmi088.o
 .debug_loc     0x0006d829      0xc38 ./build/bmi088.o
 .debug_loc     0x0006e461       0xb8 ./build/board.o
 .debug_loc     0x0006e519      0x2ba ./build/sensor_intf_hmc5883l.o
 .debug_loc     0x0006e7d3      0x137 ./build/hmc5883l.o
 .debug_loc     0x0006e90a      0x295 ./build/sensor_intf_mmc5983ma.o
 .debug_loc     0x0006eb9f       0x9d ./build/mmc5983ma.o
 .debug_loc     0x0006ec3c      0x109 ./build/spl06_001.o
 .debug_loc     0x0006ed45      0x826 ./build/dfs.o
 .debug_loc     0x0006f56b      0x3d0 ./build/select.o
 .debug_loc     0x0006f93b     0x11b2 ./build/dfs_file.o
 .debug_loc     0x00070aed      0x6c5 ./build/poll.o
 .debug_loc     0x000711b2      0xf7e ./build/dfs_posix.o
 .debug_loc     0x00072130      0xa4c ./build/dfs_fs.o
 .debug_loc     0x00072b7c      0x965 ./build/audio_pipe.o
 .debug_loc     0x000734e1      0xf29 ./build/audio.o
 .debug_loc     0x0007440a     0x14d7 ./build/can.o
 .debug_loc     0x000758e1      0x442 ./build/i2c_dev.o
 .debug_loc     0x00075d23      0xa96 ./build/i2c-bit-ops.o
 .debug_loc     0x000767b9      0x4ee ./build/i2c_core.o
 .debug_loc     0x00076ca7      0x2f0 ./build/completion.o
 .debug_loc     0x00076f97      0x451 ./build/waitqueue.o
 .debug_loc     0x000773e8      0x8a6 ./build/pipe.o
 .debug_loc     0x00077c8e      0x8c5 ./build/ringbuffer.o
 .debug_loc     0x00078553      0x8ab ./build/dataqueue.o
 .debug_loc     0x00078dfe      0xa22 ./build/workqueue.o
 .debug_loc     0x00079820     0x11a5 ./build/ringblk_buf.o
 .debug_loc     0x0007a9c5      0x7ab ./build/adc.o
 .debug_loc     0x0007b170      0x750 ./build/pin.o
 .debug_loc     0x0007b8c0     0x1ba6 ./build/sd.o
 .debug_loc     0x0007d466     0x2167 ./build/sdio.o
 .debug_loc     0x0007f5cd     0x18f4 ./build/mmc.o
 .debug_loc     0x00080ec1      0xe6f ./build/mmcsd_core.o
 .debug_loc     0x00081d30      0xdb8 ./build/block_dev.o
 .debug_loc     0x00082ae8      0xcb5 ./build/sensor_cmd.o
 .debug_loc     0x0008379d      0xa54 ./build/sensor.o
 .debug_loc     0x000841f1     0x1712 ./build/serial_v2.o
 .debug_loc     0x00085903      0x9ad ./build/spi_core.o
 .debug_loc     0x000862b0     0x1db4 ./build/spi_msd.o
 .debug_loc     0x00088064      0x62c ./build/spi_dev.o
 .debug_loc     0x00088690      0x85b ./build/winusb.o
 .debug_loc     0x00088eeb      0x392 ./build/audio_mic.o
 .debug_loc     0x0008927d      0x392 ./build/audio_speaker.o
 .debug_loc     0x0008960f     0x42a6 ./build/usbdevice_core.o
 .debug_loc     0x0008d8b5      0x1af ./build/usbdevice.o
 .debug_loc     0x0008da64     0x124b ./build/cmd.o
 .debug_loc     0x0008ecaf      0x676 ./build/msh.o
 .debug_loc     0x0008f325      0x470 ./build/shell.o
 .debug_loc     0x0008f795      0x1e4 ./build/cpuport.o
 .debug_loc     0x0008f979       0xc3 ./build/components.o
 .debug_loc     0x0008fa3c      0xb0c ./build/timer.o
 .debug_loc     0x00090548      0xaff ./build/thread.o
 .debug_loc     0x00091047      0x7f0 ./build/object.o
 .debug_loc     0x00091837      0x790 ./build/device.o
 .debug_loc     0x00091fc7     0x4046 ./build/ipc.o
 .debug_loc     0x0009600d     0x1ed5 ./build/kservice.o
 .debug_loc     0x00097ee2       0xfe ./build/clock.o
 .debug_loc     0x00097fe0      0x364 ./build/scheduler.o
 .debug_loc     0x00098344       0x7b ./build/irq.o
 .debug_loc     0x000983bf      0x7bc ./build/mempool.o
 .debug_loc     0x00098b7b      0x317 ./build/idle.o
 .debug_loc     0x00098e92      0x949 ./build/mem.o

.debug_aranges  0x00000000     0x1940
 .debug_aranges
                0x00000000       0x20 ./build/drv_sdio.o
 .debug_aranges
                0x00000020       0x20 ./build/drv_usart_v2.o
 .debug_aranges
                0x00000040       0x20 ./build/drv_soft_i2c.o
 .debug_aranges
                0x00000060       0x20 ./build/drv_gpio.o
 .debug_aranges
                0x00000080       0x20 ./build/drv_spi.o
 .debug_aranges
                0x000000a0       0x18 ./build/drv_adc.o
 .debug_aranges
                0x000000b8       0x20 ./build/drv_common.o
 .debug_aranges
                0x000000d8       0x20 ./build/drv_fdcan.o
 .debug_aranges
                0x000000f8       0x18 ./build/drv_flash_h7.o
 .debug_aranges
                0x00000110       0x20 ./build/system_stm32h7xx.o
 .debug_aranges
                0x00000130       0x20 ./build/stm32h7xx_ll_dma.o
 .debug_aranges
                0x00000150       0x20 ./build/stm32h7xx_hal_cryp.o
 .debug_aranges
                0x00000170       0x20 ./build/stm32h7xx_hal_hrtim.o
 .debug_aranges
                0x00000190       0x20 ./build/stm32h7xx_hal.o
 .debug_aranges
                0x000001b0       0x20 ./build/stm32h7xx_hal_rcc_ex.o
 .debug_aranges
                0x000001d0       0x20 ./build/stm32h7xx_hal_fdcan.o
 .debug_aranges
                0x000001f0       0x20 ./build/stm32h7xx_hal_sd_ex.o
 .debug_aranges
                0x00000210       0x20 ./build/stm32h7xx_hal_hcd.o
 .debug_aranges
                0x00000230       0x20 ./build/stm32h7xx_hal_tim.o
 .debug_aranges
                0x00000250       0x20 ./build/stm32h7xx_hal_pcd.o
 .debug_aranges
                0x00000270       0x20 ./build/stm32h7xx_hal_dcmi.o
 .debug_aranges
                0x00000290       0x20 ./build/stm32h7xx_hal_usart.o
 .debug_aranges
                0x000002b0       0x20 ./build/stm32h7xx_hal_crc.o
 .debug_aranges
                0x000002d0       0x20 ./build/stm32h7xx_hal_opamp_ex.o
 .debug_aranges
                0x000002f0       0x20 ./build/stm32h7xx_hal_dac.o
 .debug_aranges
                0x00000310       0x20 ./build/stm32h7xx_hal_pwr_ex.o
 .debug_aranges
                0x00000330       0x18 ./build/stm32h7xx_hal_cordic.o
 .debug_aranges
                0x00000348       0x18 ./build/stm32h7xx_hal_dsi.o
 .debug_aranges
                0x00000360       0x20 ./build/stm32h7xx_ll_adc.o
 .debug_aranges
                0x00000380       0x20 ./build/stm32h7xx_ll_swpmi.o
 .debug_aranges
                0x000003a0       0x20 ./build/stm32h7xx_hal_msp_template.o
 .debug_aranges
                0x000003c0       0x20 ./build/stm32h7xx_hal_opamp.o
 .debug_aranges
                0x000003e0       0x20 ./build/stm32h7xx_hal_rcc.o
 .debug_aranges
                0x00000400       0x20 ./build/stm32h7xx_hal_exti.o
 .debug_aranges
                0x00000420       0x20 ./build/stm32h7xx_hal_sd.o
 .debug_aranges
                0x00000440       0x20 ./build/stm32h7xx_ll_lpuart.o
 .debug_aranges
                0x00000460       0x20 ./build/stm32h7xx_hal_eth.o
 .debug_aranges
                0x00000480       0x20 ./build/stm32h7xx_hal_dma2d.o
 .debug_aranges
                0x000004a0       0x20 ./build/stm32h7xx_hal_i2c.o
 .debug_aranges
                0x000004c0       0x20 ./build/stm32h7xx_hal_iwdg.o
 .debug_aranges
                0x000004e0       0x20 ./build/stm32h7xx_hal_flash.o
 .debug_aranges
                0x00000500       0x20 ./build/stm32h7xx_hal_smartcard.o
 .debug_aranges
                0x00000520       0x20 ./build/stm32h7xx_hal_pwr.o
 .debug_aranges
                0x00000540       0x20 ./build/stm32h7xx_hal_rtc.o
 .debug_aranges
                0x00000560       0x20 ./build/stm32h7xx_hal_ramecc.o
 .debug_aranges
                0x00000580       0x20 ./build/stm32h7xx_ll_usart.o
 .debug_aranges
                0x000005a0       0x20 ./build/stm32h7xx_hal_spdifrx.o
 .debug_aranges
                0x000005c0       0x20 ./build/stm32h7xx_ll_crc.o
 .debug_aranges
                0x000005e0       0x20 ./build/stm32h7xx_hal_mdios.o
 .debug_aranges
                0x00000600       0x20 ./build/stm32h7xx_hal_spi_ex.o
 .debug_aranges
                0x00000620       0x18 ./build/stm32h7xx_ll_cordic.o
 .debug_aranges
                0x00000638       0x20 ./build/stm32h7xx_hal_uart_ex.o
 .debug_aranges
                0x00000658       0x20 ./build/stm32h7xx_hal_dfsdm.o
 .debug_aranges
                0x00000678       0x20 ./build/stm32h7xx_hal_cortex.o
 .debug_aranges
                0x00000698       0x20 ./build/stm32h7xx_hal_hsem.o
 .debug_aranges
                0x000006b8       0x20 ./build/stm32h7xx_ll_fmc.o
 .debug_aranges
                0x000006d8       0x18 ./build/stm32h7xx_hal_rng_ex.o
 .debug_aranges
                0x000006f0       0x20 ./build/stm32h7xx_hal_smartcard_ex.o
 .debug_aranges
                0x00000710       0x20 ./build/stm32h7xx_ll_crs.o
 .debug_aranges
                0x00000730       0x20 ./build/stm32h7xx_hal_lptim.o
 .debug_aranges
                0x00000750       0x20 ./build/stm32h7xx_ll_i2c.o
 .debug_aranges
                0x00000770       0x20 ./build/stm32h7xx_hal_comp.o
 .debug_aranges
                0x00000790       0x20 ./build/stm32h7xx_ll_gpio.o
 .debug_aranges
                0x000007b0       0x20 ./build/stm32h7xx_hal_mmc.o
 .debug_aranges
                0x000007d0       0x20 ./build/stm32h7xx_hal_spi.o
 .debug_aranges
                0x000007f0       0x20 ./build/stm32h7xx_ll_rtc.o
 .debug_aranges
                0x00000810       0x20 ./build/stm32h7xx_hal_uart.o
 .debug_aranges
                0x00000830       0x20 ./build/stm32h7xx_hal_sdram.o
 .debug_aranges
                0x00000850       0x20 ./build/stm32h7xx_hal_wwdg.o
 .debug_aranges
                0x00000870       0x20 ./build/stm32h7xx_ll_pwr.o
 .debug_aranges
                0x00000890       0x20 ./build/stm32h7xx_hal_smbus_ex.o
 .debug_aranges
                0x000008b0       0x18 ./build/stm32h7xx_hal_pssi.o
 .debug_aranges
                0x000008c8       0x20 ./build/stm32h7xx_hal_rng.o
 .debug_aranges
                0x000008e8       0x20 ./build/stm32h7xx_hal_flash_ex.o
 .debug_aranges
                0x00000908       0x20 ./build/stm32h7xx_ll_rcc.o
 .debug_aranges
                0x00000928       0x20 ./build/stm32h7xx_ll_usb.o
 .debug_aranges
                0x00000948       0x20 ./build/stm32h7xx_hal_irda.o
 .debug_aranges
                0x00000968       0x20 ./build/stm32h7xx_hal_nor.o
 .debug_aranges
                0x00000988       0x20 ./build/stm32h7xx_ll_exti.o
 .debug_aranges
                0x000009a8       0x20 ./build/stm32h7xx_hal_smbus.o
 .debug_aranges
                0x000009c8       0x20 ./build/stm32h7xx_ll_comp.o
 .debug_aranges
                0x000009e8       0x20 ./build/stm32h7xx_hal_cec.o
 .debug_aranges
                0x00000a08       0x20 ./build/stm32h7xx_ll_spi.o
 .debug_aranges
                0x00000a28       0x20 ./build/stm32h7xx_ll_lptim.o
 .debug_aranges
                0x00000a48       0x18 ./build/stm32h7xx_hal_dfsdm_ex.o
 .debug_aranges
                0x00000a60       0x18 ./build/stm32h7xx_hal_dts.o
 .debug_aranges
                0x00000a78       0x20 ./build/stm32h7xx_ll_hrtim.o
 .debug_aranges
                0x00000a98       0x20 ./build/stm32h7xx_hal_dac_ex.o
 .debug_aranges
                0x00000ab8       0x20 ./build/stm32h7xx_ll_tim.o
 .debug_aranges
                0x00000ad8       0x18 ./build/stm32h7xx_hal_fmac.o
 .debug_aranges
                0x00000af0       0x20 ./build/stm32h7xx_hal_i2c_ex.o
 .debug_aranges
                0x00000b10       0x20 ./build/stm32h7xx_ll_bdma.o
 .debug_aranges
                0x00000b30       0x20 ./build/stm32h7xx_hal_sram.o
 .debug_aranges
                0x00000b50       0x20 ./build/stm32h7xx_hal_dma_ex.o
 .debug_aranges
                0x00000b70       0x20 ./build/stm32h7xx_ll_rng.o
 .debug_aranges
                0x00000b90       0x18 ./build/stm32h7xx_hal_ltdc_ex.o
 .debug_aranges
                0x00000ba8       0x20 ./build/stm32h7xx_hal_swpmi.o
 .debug_aranges
                0x00000bc8       0x20 ./build/stm32h7xx_hal_hash_ex.o
 .debug_aranges
                0x00000be8       0x20 ./build/stm32h7xx_hal_qspi.o
 .debug_aranges
                0x00000c08       0x20 ./build/stm32h7xx_hal_nand.o
 .debug_aranges
                0x00000c28       0x20 ./build/stm32h7xx_hal_i2s.o
 .debug_aranges
                0x00000c48       0x20 ./build/stm32h7xx_hal_sai_ex.o
 .debug_aranges
                0x00000c68       0x20 ./build/stm32h7xx_ll_sdmmc.o
 .debug_aranges
                0x00000c88       0x20 ./build/stm32h7xx_hal_ltdc.o
 .debug_aranges
                0x00000ca8       0x20 ./build/stm32h7xx_hal_dma.o
 .debug_aranges
                0x00000cc8       0x20 ./build/stm32h7xx_hal_mdma.o
 .debug_aranges
                0x00000ce8       0x20 ./build/stm32h7xx_hal_mmc_ex.o
 .debug_aranges
                0x00000d08       0x20 ./build/stm32h7xx_hal_adc_ex.o
 .debug_aranges
                0x00000d28       0x20 ./build/stm32h7xx_hal_tim_ex.o
 .debug_aranges
                0x00000d48       0x20 ./build/stm32h7xx_hal_eth_ex.o
 .debug_aranges
                0x00000d68       0x18 ./build/stm32h7xx_ll_fmac.o
 .debug_aranges
                0x00000d80       0x20 ./build/stm32h7xx_ll_delayblock.o
 .debug_aranges
                0x00000da0       0x20 ./build/stm32h7xx_ll_dma2d.o
 .debug_aranges
                0x00000dc0       0x20 ./build/stm32h7xx_hal_hash.o
 .debug_aranges
                0x00000de0       0x20 ./build/stm32h7xx_ll_mdma.o
 .debug_aranges
                0x00000e00       0x20 ./build/stm32h7xx_hal_cryp_ex.o
 .debug_aranges
                0x00000e20       0x20 ./build/stm32h7xx_hal_sai.o
 .debug_aranges
                0x00000e40       0x18 ./build/stm32h7xx_hal_gfxmmu.o
 .debug_aranges
                0x00000e58       0x20 ./build/stm32h7xx_ll_utils.o
 .debug_aranges
                0x00000e78       0x20 ./build/stm32h7xx_hal_gpio.o
 .debug_aranges
                0x00000e98       0x20 ./build/stm32h7xx_hal_jpeg.o
 .debug_aranges
                0x00000eb8       0x18 ./build/stm32h7xx_hal_ospi.o
 .debug_aranges
                0x00000ed0       0x20 ./build/stm32h7xx_ll_opamp.o
 .debug_aranges
                0x00000ef0       0x20 ./build/stm32h7xx_hal_adc.o
 .debug_aranges
                0x00000f10       0x20 ./build/stm32h7xx_hal_pcd_ex.o
 .debug_aranges
                0x00000f30       0x20 ./build/stm32h7xx_ll_dac.o
 .debug_aranges
                0x00000f50       0x20 ./build/stm32h7xx_hal_usart_ex.o
 .debug_aranges
                0x00000f70       0x20 ./build/stm32h7xx_hal_crc_ex.o
 .debug_aranges
                0x00000f90       0x20 ./build/stm32h7xx_hal_rtc_ex.o
 .debug_aranges
                0x00000fb0       0x18 ./build/stm32h7xx_hal_otfdec.o
 .debug_aranges
                0x00000fc8       0x20 ./build/main.o
 .debug_aranges
                0x00000fe8       0x20 ./build/stm32h7xx_it.o
 .debug_aranges
                0x00001008       0x20 ./build/stm32h7xx_hal_msp.o
 .debug_aranges
                0x00001028       0x20 ./build/bmi088_sample.o
 .debug_aranges
                0x00001048       0x20 ./build/sensor_intf_bmi088.o
 .debug_aranges
                0x00001068       0x20 ./build/bmi088.o
 .debug_aranges
                0x00001088       0x20 ./build/board.o
 .debug_aranges
                0x000010a8       0x20 ./build/sensor_intf_hmc5883l.o
 .debug_aranges
                0x000010c8       0x20 ./build/hmc5883l.o
 .debug_aranges
                0x000010e8       0x20 ./build/sensor_intf_mmc5983ma.o
 .debug_aranges
                0x00001108       0x20 ./build/mmc5983ma.o
 .debug_aranges
                0x00001128       0x20 ./build/spl06_001.o
 .debug_aranges
                0x00001148       0x20 ./build/dfs.o
 .debug_aranges
                0x00001168       0x20 ./build/select.o
 .debug_aranges
                0x00001188       0x20 ./build/dfs_file.o
 .debug_aranges
                0x000011a8       0x20 ./build/poll.o
 .debug_aranges
                0x000011c8       0x20 ./build/dfs_posix.o
 .debug_aranges
                0x000011e8       0x20 ./build/dfs_fs.o
 .debug_aranges
                0x00001208       0x20 ./build/audio_pipe.o
 .debug_aranges
                0x00001228       0x20 ./build/audio.o
 .debug_aranges
                0x00001248       0x20 ./build/can.o
 .debug_aranges
                0x00001268       0x20 ./build/i2c_dev.o
 .debug_aranges
                0x00001288       0x20 ./build/i2c-bit-ops.o
 .debug_aranges
                0x000012a8       0x20 ./build/i2c_core.o
 .debug_aranges
                0x000012c8       0x20 ./build/completion.o
 .debug_aranges
                0x000012e8       0x20 ./build/waitqueue.o
 .debug_aranges
                0x00001308       0x20 ./build/pipe.o
 .debug_aranges
                0x00001328       0x20 ./build/ringbuffer.o
 .debug_aranges
                0x00001348       0x20 ./build/dataqueue.o
 .debug_aranges
                0x00001368       0x20 ./build/workqueue.o
 .debug_aranges
                0x00001388       0x20 ./build/ringblk_buf.o
 .debug_aranges
                0x000013a8       0x20 ./build/adc.o
 .debug_aranges
                0x000013c8       0x20 ./build/pin.o
 .debug_aranges
                0x000013e8       0x20 ./build/sd.o
 .debug_aranges
                0x00001408       0x20 ./build/sdio.o
 .debug_aranges
                0x00001428       0x20 ./build/mmc.o
 .debug_aranges
                0x00001448       0x20 ./build/mmcsd_core.o
 .debug_aranges
                0x00001468       0x20 ./build/block_dev.o
 .debug_aranges
                0x00001488       0x20 ./build/sensor_cmd.o
 .debug_aranges
                0x000014a8       0x20 ./build/sensor.o
 .debug_aranges
                0x000014c8       0x20 ./build/serial_v2.o
 .debug_aranges
                0x000014e8       0x20 ./build/spi_core.o
 .debug_aranges
                0x00001508       0x20 ./build/spi_msd.o
 .debug_aranges
                0x00001528       0x20 ./build/spi_dev.o
 .debug_aranges
                0x00001548       0x20 ./build/winusb.o
 .debug_aranges
                0x00001568       0x20 ./build/audio_mic.o
 .debug_aranges
                0x00001588       0x18 ./build/cdc_vcom.o
 .debug_aranges
                0x000015a0       0x18 ./build/hid.o
 .debug_aranges
                0x000015b8       0x18 ./build/mstorage.o
 .debug_aranges
                0x000015d0       0x20 ./build/audio_speaker.o
 .debug_aranges
                0x000015f0       0x18 ./build/ecm.o
 .debug_aranges
                0x00001608       0x18 ./build/rndis.o
 .debug_aranges
                0x00001620       0x20 ./build/usbdevice_core.o
 .debug_aranges
                0x00001640       0x20 ./build/usbdevice.o
 .debug_aranges
                0x00001660       0x20 ./build/cmd.o
 .debug_aranges
                0x00001680       0x20 ./build/msh.o
 .debug_aranges
                0x000016a0       0x20 ./build/shell.o
 .debug_aranges
                0x000016c0       0x18 ./build/msh_file.o
 .debug_aranges
                0x000016d8       0x20 ./build/cpuport.o
 .debug_aranges
                0x000016f8       0x20 ./build/components.o
 .debug_aranges
                0x00001718       0x20 ./build/timer.o
 .debug_aranges
                0x00001738       0x20 ./build/thread.o
 .debug_aranges
                0x00001758       0x18 ./build/slab.o
 .debug_aranges
                0x00001770       0x18 ./build/memheap.o
 .debug_aranges
                0x00001788       0x20 ./build/object.o
 .debug_aranges
                0x000017a8       0x18 ./build/signal.o
 .debug_aranges
                0x000017c0       0x18 ./build/cpu.o
 .debug_aranges
                0x000017d8       0x20 ./build/device.o
 .debug_aranges
                0x000017f8       0x20 ./build/ipc.o
 .debug_aranges
                0x00001818       0x20 ./build/kservice.o
 .debug_aranges
                0x00001838       0x20 ./build/clock.o
 .debug_aranges
                0x00001858       0x20 ./build/scheduler.o
 .debug_aranges
                0x00001878       0x20 ./build/irq.o
 .debug_aranges
                0x00001898       0x20 ./build/mempool.o
 .debug_aranges
                0x000018b8       0x20 ./build/idle.o
 .debug_aranges
                0x000018d8       0x20 ./build/mem.o
 .debug_aranges
                0x000018f8       0x28 ./build/startup_stm32h750xx.o
 .debug_aranges
                0x00001920       0x20 ./build/context_gcc.o

.debug_ranges   0x00000000     0x2160
 .debug_ranges  0x00000000       0x18 ./build/drv_sdio.o
 .debug_ranges  0x00000018       0x30 ./build/drv_usart_v2.o
 .debug_ranges  0x00000048       0x18 ./build/drv_soft_i2c.o
 .debug_ranges  0x00000060       0x40 ./build/drv_gpio.o
 .debug_ranges  0x000000a0       0x18 ./build/drv_spi.o
 .debug_ranges  0x000000b8       0x60 ./build/stm32h7xx_ll_dma.o
 .debug_ranges  0x00000118       0x48 ./build/stm32h7xx_hal_fdcan.o
 .debug_ranges  0x00000160       0x60 ./build/stm32h7xx_hal_pwr_ex.o
 .debug_ranges  0x000001c0       0x18 ./build/stm32h7xx_ll_swpmi.o
 .debug_ranges  0x000001d8       0x70 ./build/stm32h7xx_hal_rcc.o
 .debug_ranges  0x00000248       0x30 ./build/stm32h7xx_ll_lpuart.o
 .debug_ranges  0x00000278       0xd8 ./build/stm32h7xx_ll_usart.o
 .debug_ranges  0x00000350       0x18 ./build/stm32h7xx_ll_crc.o
 .debug_ranges  0x00000368       0x20 ./build/stm32h7xx_hal_dfsdm.o
 .debug_ranges  0x00000388       0x60 ./build/stm32h7xx_hal_cortex.o
 .debug_ranges  0x000003e8       0x60 ./build/stm32h7xx_ll_i2c.o
 .debug_ranges  0x00000448      0x108 ./build/stm32h7xx_ll_gpio.o
 .debug_ranges  0x00000550       0x18 ./build/stm32h7xx_hal_mmc.o
 .debug_ranges  0x00000568       0x78 ./build/stm32h7xx_ll_rcc.o
 .debug_ranges  0x000005e0       0x78 ./build/stm32h7xx_hal_nor.o
 .debug_ranges  0x00000658       0x48 ./build/stm32h7xx_ll_exti.o
 .debug_ranges  0x000006a0      0x120 ./build/stm32h7xx_ll_lptim.o
 .debug_ranges  0x000007c0      0x150 ./build/stm32h7xx_ll_tim.o
 .debug_ranges  0x00000910       0xd8 ./build/stm32h7xx_ll_bdma.o
 .debug_ranges  0x000009e8       0x18 ./build/stm32h7xx_ll_rng.o
 .debug_ranges  0x00000a00       0x18 ./build/stm32h7xx_hal_dma.o
 .debug_ranges  0x00000a18      0x180 ./build/stm32h7xx_hal_adc_ex.o
 .debug_ranges  0x00000b98       0x18 ./build/stm32h7xx_ll_dma2d.o
 .debug_ranges  0x00000bb0       0x60 ./build/stm32h7xx_hal_sai.o
 .debug_ranges  0x00000c10      0x230 ./build/stm32h7xx_hal_adc.o
 .debug_ranges  0x00000e40       0x40 ./build/bmi088.o
 .debug_ranges  0x00000e80       0x28 ./build/sensor_intf_hmc5883l.o
 .debug_ranges  0x00000ea8       0x10 ./build/spl06_001.o
 .debug_ranges  0x00000eb8       0x50 ./build/dfs.o
 .debug_ranges  0x00000f08       0x18 ./build/select.o
 .debug_ranges  0x00000f20       0x50 ./build/dfs_file.o
 .debug_ranges  0x00000f70       0x30 ./build/dfs_fs.o
 .debug_ranges  0x00000fa0       0x48 ./build/audio_pipe.o
 .debug_ranges  0x00000fe8       0x40 ./build/audio.o
 .debug_ranges  0x00001028      0x118 ./build/can.o
 .debug_ranges  0x00001140       0x18 ./build/i2c-bit-ops.o
 .debug_ranges  0x00001158       0x30 ./build/completion.o
 .debug_ranges  0x00001188       0x48 ./build/waitqueue.o
 .debug_ranges  0x000011d0       0x48 ./build/pipe.o
 .debug_ranges  0x00001218       0x48 ./build/ringbuffer.o
 .debug_ranges  0x00001260       0x60 ./build/dataqueue.o
 .debug_ranges  0x000012c0       0x18 ./build/workqueue.o
 .debug_ranges  0x000012d8       0x18 ./build/ringblk_buf.o
 .debug_ranges  0x000012f0       0x30 ./build/sdio.o
 .debug_ranges  0x00001320       0x18 ./build/mmcsd_core.o
 .debug_ranges  0x00001338       0x18 ./build/block_dev.o
 .debug_ranges  0x00001350       0x38 ./build/sensor_cmd.o
 .debug_ranges  0x00001388       0x18 ./build/serial_v2.o
 .debug_ranges  0x000013a0      0x130 ./build/spi_msd.o
 .debug_ranges  0x000014d0       0x18 ./build/winusb.o
 .debug_ranges  0x000014e8      0x340 ./build/usbdevice_core.o
 .debug_ranges  0x00001828      0x1c8 ./build/cmd.o
 .debug_ranges  0x000019f0       0x18 ./build/msh.o
 .debug_ranges  0x00001a08       0x78 ./build/timer.o
 .debug_ranges  0x00001a80       0x48 ./build/object.o
 .debug_ranges  0x00001ac8      0x4e0 ./build/ipc.o
 .debug_ranges  0x00001fa8      0x108 ./build/kservice.o
 .debug_ranges  0x000020b0       0x18 ./build/scheduler.o
 .debug_ranges  0x000020c8       0x48 ./build/mempool.o
 .debug_ranges  0x00002110       0x30 ./build/idle.o
 .debug_ranges  0x00002140       0x20 ./build/startup_stm32h750xx.o

.debug_line     0x00000000    0x9f3c2
 .debug_line    0x00000000      0xa22 ./build/drv_sdio.o
 .debug_line    0x00000a22     0x1249 ./build/drv_usart_v2.o
 .debug_line    0x00001c6b      0x412 ./build/drv_soft_i2c.o
 .debug_line    0x0000207d      0x96c ./build/drv_gpio.o
 .debug_line    0x000029e9      0xc95 ./build/drv_spi.o
 .debug_line    0x0000367e       0x1d ./build/drv_adc.o
 .debug_line    0x0000369b      0x563 ./build/drv_common.o
 .debug_line    0x00003bfe      0xbc2 ./build/drv_fdcan.o
 .debug_line    0x000047c0       0x1d ./build/drv_flash_h7.o
 .debug_line    0x000047dd      0x4e5 ./build/system_stm32h7xx.o
 .debug_line    0x00004cc2      0x648 ./build/stm32h7xx_ll_dma.o
 .debug_line    0x0000530a     0x4b95 ./build/stm32h7xx_hal_cryp.o
 .debug_line    0x00009e9f     0x512c ./build/stm32h7xx_hal_hrtim.o
 .debug_line    0x0000efcb      0x725 ./build/stm32h7xx_hal.o
 .debug_line    0x0000f6f0     0x1cdc ./build/stm32h7xx_hal_rcc_ex.o
 .debug_line    0x000113cc     0x2e6e ./build/stm32h7xx_hal_fdcan.o
 .debug_line    0x0001423a      0x53b ./build/stm32h7xx_hal_sd_ex.o
 .debug_line    0x00014775      0xfe0 ./build/stm32h7xx_hal_hcd.o
 .debug_line    0x00015755     0x4bee ./build/stm32h7xx_hal_tim.o
 .debug_line    0x0001a343     0x147f ./build/stm32h7xx_hal_pcd.o
 .debug_line    0x0001b7c2      0xbc4 ./build/stm32h7xx_hal_dcmi.o
 .debug_line    0x0001c386     0x27ab ./build/stm32h7xx_hal_usart.o
 .debug_line    0x0001eb31      0x645 ./build/stm32h7xx_hal_crc.o
 .debug_line    0x0001f176      0x4e3 ./build/stm32h7xx_hal_opamp_ex.o
 .debug_line    0x0001f659      0x8f6 ./build/stm32h7xx_hal_dac.o
 .debug_line    0x0001ff4f      0x946 ./build/stm32h7xx_hal_pwr_ex.o
 .debug_line    0x00020895       0x1d ./build/stm32h7xx_hal_cordic.o
 .debug_line    0x000208b2       0x1d ./build/stm32h7xx_hal_dsi.o
 .debug_line    0x000208cf      0x73e ./build/stm32h7xx_ll_adc.o
 .debug_line    0x0002100d      0x332 ./build/stm32h7xx_ll_swpmi.o
 .debug_line    0x0002133f       0xaa ./build/stm32h7xx_hal_msp_template.o
 .debug_line    0x000213e9      0x6ce ./build/stm32h7xx_hal_opamp.o
 .debug_line    0x00021ab7     0x120a ./build/stm32h7xx_hal_rcc.o
 .debug_line    0x00022cc1      0x8e0 ./build/stm32h7xx_hal_exti.o
 .debug_line    0x000235a1     0x27c4 ./build/stm32h7xx_hal_sd.o
 .debug_line    0x00025d65      0x3e4 ./build/stm32h7xx_ll_lpuart.o
 .debug_line    0x00026149     0x1c00 ./build/stm32h7xx_hal_eth.o
 .debug_line    0x00027d49        0x0 ./build/stm32h7xx_hal_i2s_ex.o
 .debug_line    0x00027d49     0x11cd ./build/stm32h7xx_hal_dma2d.o
 .debug_line    0x00028f16     0x4a6e ./build/stm32h7xx_hal_i2c.o
 .debug_line    0x0002d984      0x2fc ./build/stm32h7xx_hal_iwdg.o
 .debug_line    0x0002dc80      0x8ea ./build/stm32h7xx_hal_flash.o
 .debug_line    0x0002e56a     0x1afd ./build/stm32h7xx_hal_smartcard.o
 .debug_line    0x00030067      0x40c ./build/stm32h7xx_hal_pwr.o
 .debug_line    0x00030473     0x1007 ./build/stm32h7xx_hal_rtc.o
 .debug_line    0x0003147a      0x5a0 ./build/stm32h7xx_hal_ramecc.o
 .debug_line    0x00031a1a      0x710 ./build/stm32h7xx_ll_usart.o
 .debug_line    0x0003212a      0xf54 ./build/stm32h7xx_hal_spdifrx.o
 .debug_line    0x0003307e      0x285 ./build/stm32h7xx_ll_crc.o
 .debug_line    0x00033303      0x5f4 ./build/stm32h7xx_hal_mdios.o
 .debug_line    0x000338f7      0x3ea ./build/stm32h7xx_hal_spi_ex.o
 .debug_line    0x00033ce1       0x1d ./build/stm32h7xx_ll_cordic.o
 .debug_line    0x00033cfe      0xce7 ./build/stm32h7xx_hal_uart_ex.o
 .debug_line    0x000349e5     0x1c83 ./build/stm32h7xx_hal_dfsdm.o
 .debug_line    0x00036668      0x768 ./build/stm32h7xx_hal_cortex.o
 .debug_line    0x00036dd0      0x30e ./build/stm32h7xx_hal_hsem.o
 .debug_line    0x000370de      0x637 ./build/stm32h7xx_ll_fmc.o
 .debug_line    0x00037715       0x1d ./build/stm32h7xx_hal_rng_ex.o
 .debug_line    0x00037732      0x628 ./build/stm32h7xx_hal_smartcard_ex.o
 .debug_line    0x00037d5a      0x266 ./build/stm32h7xx_ll_crs.o
 .debug_line    0x00037fc0      0xfc5 ./build/stm32h7xx_hal_lptim.o
 .debug_line    0x00038f85      0x482 ./build/stm32h7xx_ll_i2c.o
 .debug_line    0x00039407      0x75c ./build/stm32h7xx_hal_comp.o
 .debug_line    0x00039b63      0x70f ./build/stm32h7xx_ll_gpio.o
 .debug_line    0x0003a272     0x328f ./build/stm32h7xx_hal_mmc.o
 .debug_line    0x0003d501     0x253c ./build/stm32h7xx_hal_spi.o
 .debug_line    0x0003fa3d      0xce8 ./build/stm32h7xx_ll_rtc.o
 .debug_line    0x00040725     0x643b ./build/stm32h7xx_hal_uart.o
 .debug_line    0x00046b60      0xba2 ./build/stm32h7xx_hal_sdram.o
 .debug_line    0x00047702      0x2cc ./build/stm32h7xx_hal_wwdg.o
 .debug_line    0x000479ce      0x1d6 ./build/stm32h7xx_ll_pwr.o
 .debug_line    0x00047ba4      0x38e ./build/stm32h7xx_hal_smbus_ex.o
 .debug_line    0x00047f32       0x1d ./build/stm32h7xx_hal_pssi.o
 .debug_line    0x00047f4f      0x599 ./build/stm32h7xx_hal_rng.o
 .debug_line    0x000484e8      0xaab ./build/stm32h7xx_hal_flash_ex.o
 .debug_line    0x00048f93     0x1bb4 ./build/stm32h7xx_ll_rcc.o
 .debug_line    0x0004ab47     0x1d04 ./build/stm32h7xx_ll_usb.o
 .debug_line    0x0004c84b     0x1873 ./build/stm32h7xx_hal_irda.o
 .debug_line    0x0004e0be     0x1889 ./build/stm32h7xx_hal_nor.o
 .debug_line    0x0004f947      0x6c2 ./build/stm32h7xx_ll_exti.o
 .debug_line    0x00050009     0x1850 ./build/stm32h7xx_hal_smbus.o
 .debug_line    0x00051859      0x2f1 ./build/stm32h7xx_ll_comp.o
 .debug_line    0x00051b4a      0x677 ./build/stm32h7xx_hal_cec.o
 .debug_line    0x000521c1      0x690 ./build/stm32h7xx_ll_spi.o
 .debug_line    0x00052851      0x77c ./build/stm32h7xx_ll_lptim.o
 .debug_line    0x00052fcd       0x1d ./build/stm32h7xx_hal_dfsdm_ex.o
 .debug_line    0x00052fea       0x1d ./build/stm32h7xx_hal_dts.o
 .debug_line    0x00053007      0x283 ./build/stm32h7xx_ll_hrtim.o
 .debug_line    0x0005328a      0x857 ./build/stm32h7xx_hal_dac_ex.o
 .debug_line    0x00053ae1      0xe3b ./build/stm32h7xx_ll_tim.o
 .debug_line    0x0005491c       0x1d ./build/stm32h7xx_hal_fmac.o
 .debug_line    0x00054939      0x508 ./build/stm32h7xx_hal_i2c_ex.o
 .debug_line    0x00054e41      0x5c5 ./build/stm32h7xx_ll_bdma.o
 .debug_line    0x00055406      0xa91 ./build/stm32h7xx_hal_sram.o
 .debug_line    0x00055e97      0xc3a ./build/stm32h7xx_hal_dma_ex.o
 .debug_line    0x00056ad1      0x2be ./build/stm32h7xx_ll_rng.o
 .debug_line    0x00056d8f       0x1d ./build/stm32h7xx_hal_ltdc_ex.o
 .debug_line    0x00056dac      0xf7d ./build/stm32h7xx_hal_swpmi.o
 .debug_line    0x00057d29      0x5a6 ./build/stm32h7xx_hal_hash_ex.o
 .debug_line    0x000582cf     0x13e7 ./build/stm32h7xx_hal_qspi.o
 .debug_line    0x000596b6     0x2914 ./build/stm32h7xx_hal_nand.o
 .debug_line    0x0005bfca     0x1887 ./build/stm32h7xx_hal_i2s.o
 .debug_line    0x0005d851      0x306 ./build/stm32h7xx_hal_sai_ex.o
 .debug_line    0x0005db57     0x10a4 ./build/stm32h7xx_ll_sdmmc.o
 .debug_line    0x0005ebfb     0x1877 ./build/stm32h7xx_hal_ltdc.o
 .debug_line    0x00060472     0x2447 ./build/stm32h7xx_hal_dma.o
 .debug_line    0x000628b9     0x144a ./build/stm32h7xx_hal_mdma.o
 .debug_line    0x00063d03      0x5bd ./build/stm32h7xx_hal_mmc_ex.o
 .debug_line    0x000642c0     0x2602 ./build/stm32h7xx_hal_adc_ex.o
 .debug_line    0x000668c2     0x1e2b ./build/stm32h7xx_hal_tim_ex.o
 .debug_line    0x000686ed      0x697 ./build/stm32h7xx_hal_eth_ex.o
 .debug_line    0x00068d84       0x1d ./build/stm32h7xx_ll_fmac.o
 .debug_line    0x00068da1      0x3b7 ./build/stm32h7xx_ll_delayblock.o
 .debug_line    0x00069158      0x853 ./build/stm32h7xx_ll_dma2d.o
 .debug_line    0x000699ab     0x2067 ./build/stm32h7xx_hal_hash.o
 .debug_line    0x0006ba12      0x731 ./build/stm32h7xx_ll_mdma.o
 .debug_line    0x0006c143      0x9bd ./build/stm32h7xx_hal_cryp_ex.o
 .debug_line    0x0006cb00     0x2065 ./build/stm32h7xx_hal_sai.o
 .debug_line    0x0006eb65       0x1d ./build/stm32h7xx_hal_gfxmmu.o
 .debug_line    0x0006eb82      0xae8 ./build/stm32h7xx_ll_utils.o
 .debug_line    0x0006f66a      0x6f3 ./build/stm32h7xx_hal_gpio.o
 .debug_line    0x0006fd5d     0x2b1c ./build/stm32h7xx_hal_jpeg.o
 .debug_line    0x00072879       0x1d ./build/stm32h7xx_hal_ospi.o
 .debug_line    0x00072896      0x2ba ./build/stm32h7xx_ll_opamp.o
 .debug_line    0x00072b50     0x2858 ./build/stm32h7xx_hal_adc.o
 .debug_line    0x000753a8      0x4af ./build/stm32h7xx_hal_pcd_ex.o
 .debug_line    0x00075857      0x33b ./build/stm32h7xx_ll_dac.o
 .debug_line    0x00075b92      0x73a ./build/stm32h7xx_hal_usart_ex.o
 .debug_line    0x000762cc      0x318 ./build/stm32h7xx_hal_crc_ex.o
 .debug_line    0x000765e4     0x17a0 ./build/stm32h7xx_hal_rtc_ex.o
 .debug_line    0x00077d84       0x1d ./build/stm32h7xx_hal_otfdec.o
 .debug_line    0x00077da1       0x7c ./build/main.o
 .debug_line    0x00077e1d      0x174 ./build/stm32h7xx_it.o
 .debug_line    0x00077f91      0x79b ./build/stm32h7xx_hal_msp.o
 .debug_line    0x0007872c      0x295 ./build/bmi088_sample.o
 .debug_line    0x000789c1      0x5d2 ./build/sensor_intf_bmi088.o
 .debug_line    0x00078f93      0x9f3 ./build/bmi088.o
 .debug_line    0x00079986      0x4ef ./build/board.o
 .debug_line    0x00079e75      0x2fd ./build/sensor_intf_hmc5883l.o
 .debug_line    0x0007a172      0x31d ./build/hmc5883l.o
 .debug_line    0x0007a48f      0x490 ./build/sensor_intf_mmc5983ma.o
 .debug_line    0x0007a91f      0x155 ./build/mmc5983ma.o
 .debug_line    0x0007aa74        0x0 ./build/fport.o
 .debug_line    0x0007aa74      0x186 ./build/spl06_001.o
 .debug_line    0x0007abfa      0xafe ./build/dfs.o
 .debug_line    0x0007b6f8      0x4c4 ./build/select.o
 .debug_line    0x0007bbbc      0xc29 ./build/dfs_file.o
 .debug_line    0x0007c7e5      0x605 ./build/poll.o
 .debug_line    0x0007cdea      0xaa8 ./build/dfs_posix.o
 .debug_line    0x0007d892      0xa9d ./build/dfs_fs.o
 .debug_line    0x0007e32f      0x6ae ./build/audio_pipe.o
 .debug_line    0x0007e9dd      0xc18 ./build/audio.o
 .debug_line    0x0007f5f5     0x147d ./build/can.o
 .debug_line    0x00080a72      0x357 ./build/i2c_dev.o
 .debug_line    0x00080dc9      0x8b0 ./build/i2c-bit-ops.o
 .debug_line    0x00081679      0x305 ./build/i2c_core.o
 .debug_line    0x0008197e      0x3e4 ./build/completion.o
 .debug_line    0x00081d62      0x3d7 ./build/waitqueue.o
 .debug_line    0x00082139      0x54c ./build/pipe.o
 .debug_line    0x00082685      0x8a1 ./build/ringbuffer.o
 .debug_line    0x00082f26      0xa42 ./build/dataqueue.o
 .debug_line    0x00083968      0xa66 ./build/workqueue.o
 .debug_line    0x000843ce      0xd44 ./build/ringblk_buf.o
 .debug_line    0x00085112      0x58d ./build/adc.o
 .debug_line    0x0008569f      0x4c6 ./build/pin.o
 .debug_line    0x00085b65      0xde6 ./build/sd.o
 .debug_line    0x0008694b     0x1c04 ./build/sdio.o
 .debug_line    0x0008854f      0xc0e ./build/mmc.o
 .debug_line    0x0008915d      0xdb4 ./build/mmcsd_core.o
 .debug_line    0x00089f11      0xa56 ./build/block_dev.o
 .debug_line    0x0008a967      0x770 ./build/sensor_cmd.o
 .debug_line    0x0008b0d7      0x856 ./build/sensor.o
 .debug_line    0x0008b92d     0x122d ./build/serial_v2.o
 .debug_line    0x0008cb5a      0x93e ./build/spi_core.o
 .debug_line    0x0008d498     0x1781 ./build/spi_msd.o
 .debug_line    0x0008ec19      0x3f1 ./build/spi_dev.o
 .debug_line    0x0008f00a      0x6f1 ./build/winusb.o
 .debug_line    0x0008f6fb      0x701 ./build/audio_mic.o
 .debug_line    0x0008fdfc       0x1d ./build/cdc_vcom.o
 .debug_line    0x0008fe19       0x1d ./build/hid.o
 .debug_line    0x0008fe36       0x97 ./build/mstorage.o
 .debug_line    0x0008fecd      0x708 ./build/audio_speaker.o
 .debug_line    0x000905d5       0x1d ./build/ecm.o
 .debug_line    0x000905f2       0x1d ./build/rndis.o
 .debug_line    0x0009060f     0x3824 ./build/usbdevice_core.o
 .debug_line    0x00093e33      0x26b ./build/usbdevice.o
 .debug_line    0x0009409e      0xda5 ./build/cmd.o
 .debug_line    0x00094e43      0x5c9 ./build/msh.o
 .debug_line    0x0009540c      0x9a1 ./build/shell.o
 .debug_line    0x00095dad       0x1d ./build/msh_file.o
 .debug_line    0x00095dca      0x398 ./build/cpuport.o
 .debug_line    0x00096162      0x1dd ./build/components.o
 .debug_line    0x0009633f      0xb0e ./build/timer.o
 .debug_line    0x00096e4d      0xa74 ./build/thread.o
 .debug_line    0x000978c1       0x1d ./build/slab.o
 .debug_line    0x000978de       0x1d ./build/memheap.o
 .debug_line    0x000978fb      0x774 ./build/object.o
 .debug_line    0x0009806f       0x1d ./build/signal.o
 .debug_line    0x0009808c       0x1d ./build/cpu.o
 .debug_line    0x000980a9      0x61b ./build/device.o
 .debug_line    0x000986c4     0x3c8a ./build/ipc.o
 .debug_line    0x0009c34e     0x11ec ./build/kservice.o
 .debug_line    0x0009d53a      0x1a3 ./build/clock.o
 .debug_line    0x0009d6dd      0x5c0 ./build/scheduler.o
 .debug_line    0x0009dc9d      0x153 ./build/irq.o
 .debug_line    0x0009ddf0      0x833 ./build/mempool.o
 .debug_line    0x0009e623      0x356 ./build/idle.o
 .debug_line    0x0009e979      0x887 ./build/mem.o
 .debug_line    0x0009f200       0xe1 ./build/startup_stm32h750xx.o
 .debug_line    0x0009f2e1       0xe1 ./build/context_gcc.o

.debug_str      0x00000000    0x2afa5
 .debug_str     0x00000000      0xd9d ./build/drv_sdio.o
                                0xfd7 (size before relaxing)
 .debug_str     0x00000d9d     0x1711 ./build/drv_usart_v2.o
                               0x1c53 (size before relaxing)
 .debug_str     0x000024ae      0x1f2 ./build/drv_soft_i2c.o
                                0x8f6 (size before relaxing)
 .debug_str     0x000026a0      0x322 ./build/drv_gpio.o
                               0x1412 (size before relaxing)
 .debug_str     0x000029c2      0x4fb ./build/drv_spi.o
                               0x1c01 (size before relaxing)
 .debug_str     0x00002ebd       0x44 ./build/drv_adc.o
                                0x17c (size before relaxing)
 .debug_str     0x00002f01      0x25a ./build/drv_common.o
                                0xe84 (size before relaxing)
 .debug_str     0x0000315b      0xb81 ./build/drv_fdcan.o
                               0x1c57 (size before relaxing)
 .debug_str     0x00003cdc       0x53 ./build/drv_flash_h7.o
                                0x18b (size before relaxing)
 .debug_str     0x00003d2f      0x282 ./build/system_stm32h7xx.o
                                0x73a (size before relaxing)
 .debug_str     0x00003fb1      0x27d ./build/stm32h7xx_ll_dma.o
                                0x721 (size before relaxing)
 .debug_str     0x0000422e      0x70e ./build/stm32h7xx_hal_cryp.o
                                0xc5d (size before relaxing)
 .debug_str     0x0000493c     0x18df ./build/stm32h7xx_hal_hrtim.o
                               0x210a (size before relaxing)
 .debug_str     0x0000621b      0x712 ./build/stm32h7xx_hal.o
                               0x14a0 (size before relaxing)
 .debug_str     0x0000692d      0x92b ./build/stm32h7xx_hal_rcc_ex.o
                                0xedd (size before relaxing)
 .debug_str     0x00007258     0x12ac ./build/stm32h7xx_hal_fdcan.o
                               0x1d8d (size before relaxing)
 .debug_str     0x00008504      0x20c ./build/stm32h7xx_hal_sd_ex.o
                                0x696 (size before relaxing)
 .debug_str     0x00008710      0x916 ./build/stm32h7xx_hal_hcd.o
                                0xb62 (size before relaxing)
 .debug_str     0x00009026     0x1192 ./build/stm32h7xx_hal_tim.o
                               0x1804 (size before relaxing)
 .debug_str     0x0000a1b8      0x8f3 ./build/stm32h7xx_hal_pcd.o
                                0xdea (size before relaxing)
 .debug_str     0x0000aaab      0x4c0 ./build/stm32h7xx_hal_dcmi.o
                                0xa19 (size before relaxing)
 .debug_str     0x0000af6b      0x7b4 ./build/stm32h7xx_hal_usart.o
                               0x1133 (size before relaxing)
 .debug_str     0x0000b71f      0x24d ./build/stm32h7xx_hal_crc.o
                                0x473 (size before relaxing)
 .debug_str     0x0000b96c      0x263 ./build/stm32h7xx_hal_opamp_ex.o
                                0x483 (size before relaxing)
 .debug_str     0x0000bbcf      0x447 ./build/stm32h7xx_hal_dac.o
                                0x95f (size before relaxing)
 .debug_str     0x0000c016      0x56a ./build/stm32h7xx_hal_pwr_ex.o
                                0xa2a (size before relaxing)
 .debug_str     0x0000c580       0x6c ./build/stm32h7xx_hal_cordic.o
                                0x1a4 (size before relaxing)
 .debug_str     0x0000c5ec       0x69 ./build/stm32h7xx_hal_dsi.o
                                0x1a1 (size before relaxing)
 .debug_str     0x0000c655      0x4a5 ./build/stm32h7xx_ll_adc.o
                                0x8fc (size before relaxing)
 .debug_str     0x0000cafa      0x174 ./build/stm32h7xx_ll_swpmi.o
                                0x52a (size before relaxing)
 .debug_str     0x0000cc6e       0x94 ./build/stm32h7xx_hal_msp_template.o
                                0x1e6 (size before relaxing)
 .debug_str     0x0000cd02      0x1ac ./build/stm32h7xx_hal_opamp.o
                                0x4fb (size before relaxing)
 .debug_str     0x0000ceae      0x32c ./build/stm32h7xx_hal_rcc.o
                                0x9fb (size before relaxing)
 .debug_str     0x0000d1da      0x1fb ./build/stm32h7xx_hal_exti.o
                                0x4f1 (size before relaxing)
 .debug_str     0x0000d3d5      0x9e0 ./build/stm32h7xx_hal_sd.o
                                0xfdc (size before relaxing)
 .debug_str     0x0000ddb5      0x1ed ./build/stm32h7xx_ll_lpuart.o
                                0x601 (size before relaxing)
 .debug_str     0x0000dfa2     0x14c7 ./build/stm32h7xx_hal_eth.o
                               0x1af3 (size before relaxing)
 .debug_str     0x0000f469       0x6c ./build/stm32h7xx_hal_i2s_ex.o
                                0x102 (size before relaxing)
 .debug_str     0x0000f4d5      0x57c ./build/stm32h7xx_hal_dma2d.o
                                0xa6e (size before relaxing)
 .debug_str     0x0000fa51      0xabf ./build/stm32h7xx_hal_i2c.o
                               0x112b (size before relaxing)
 .debug_str     0x00010510       0xc5 ./build/stm32h7xx_hal_iwdg.o
                                0x285 (size before relaxing)
 .debug_str     0x000105d5      0x360 ./build/stm32h7xx_hal_flash.o
                                0x6d9 (size before relaxing)
 .debug_str     0x00010935      0x710 ./build/stm32h7xx_hal_smartcard.o
                               0x11c4 (size before relaxing)
 .debug_str     0x00011045      0x221 ./build/stm32h7xx_hal_pwr.o
                                0x5f6 (size before relaxing)
 .debug_str     0x00011266      0x4c5 ./build/stm32h7xx_hal_rtc.o
                                0x862 (size before relaxing)
 .debug_str     0x0001172b      0x321 ./build/stm32h7xx_hal_ramecc.o
                                0x4f2 (size before relaxing)
 .debug_str     0x00011a4c      0x24f ./build/stm32h7xx_ll_usart.o
                                0x6c3 (size before relaxing)
 .debug_str     0x00011c9b      0x502 ./build/stm32h7xx_hal_spdifrx.o
                                0xb12 (size before relaxing)
 .debug_str     0x0001219d       0x7b ./build/stm32h7xx_ll_crc.o
                                0x456 (size before relaxing)
 .debug_str     0x00012218      0x4b6 ./build/stm32h7xx_hal_mdios.o
                                0x79f (size before relaxing)
 .debug_str     0x000126ce       0xe9 ./build/stm32h7xx_hal_spi_ex.o
                                0x897 (size before relaxing)
 .debug_str     0x000127b7       0x6b ./build/stm32h7xx_ll_cordic.o
                                0x1a3 (size before relaxing)
 .debug_str     0x00012822      0x3b7 ./build/stm32h7xx_hal_uart_ex.o
                                0xb3b (size before relaxing)
 .debug_str     0x00012bd9      0xdf7 ./build/stm32h7xx_hal_dfsdm.o
                               0x13d4 (size before relaxing)
 .debug_str     0x000139d0      0x3e5 ./build/stm32h7xx_hal_cortex.o
                               0x1038 (size before relaxing)
 .debug_str     0x00013db5      0x1b8 ./build/stm32h7xx_hal_hsem.o
                                0x34f (size before relaxing)
 .debug_str     0x00013f6d      0x64a ./build/stm32h7xx_ll_fmc.o
                                0x89a (size before relaxing)
 .debug_str     0x000145b7       0x6c ./build/stm32h7xx_hal_rng_ex.o
                                0x1a4 (size before relaxing)
 .debug_str     0x00014623      0x1a5 ./build/stm32h7xx_hal_smartcard_ex.o
                                0x99a (size before relaxing)
 .debug_str     0x000147c8       0x76 ./build/stm32h7xx_ll_crs.o
                                0x439 (size before relaxing)
 .debug_str     0x0001483e      0x60c ./build/stm32h7xx_hal_lptim.o
                                0xaab (size before relaxing)
 .debug_str     0x00014e4a      0x19c ./build/stm32h7xx_ll_i2c.o
                                0x5fc (size before relaxing)
 .debug_str     0x00014fe6      0x2bd ./build/stm32h7xx_hal_comp.o
                                0x5d7 (size before relaxing)
 .debug_str     0x000152a3      0x144 ./build/stm32h7xx_ll_gpio.o
                                0x5a7 (size before relaxing)
 .debug_str     0x000153e7      0x6a5 ./build/stm32h7xx_hal_mmc.o
                                0xfdc (size before relaxing)
 .debug_str     0x00015a8c      0x487 ./build/stm32h7xx_hal_spi.o
                                0xd92 (size before relaxing)
 .debug_str     0x00015f13      0x49b ./build/stm32h7xx_ll_rtc.o
                                0x818 (size before relaxing)
 .debug_str     0x000163ae      0x6a0 ./build/stm32h7xx_hal_uart.o
                               0x146c (size before relaxing)
 .debug_str     0x00016a4e      0x5df ./build/stm32h7xx_hal_sdram.o
                                0xb95 (size before relaxing)
 .debug_str     0x0001702d      0x10a ./build/stm32h7xx_hal_wwdg.o
                                0x2bb (size before relaxing)
 .debug_str     0x00017137       0x76 ./build/stm32h7xx_ll_pwr.o
                                0x222 (size before relaxing)
 .debug_str     0x000171ad      0x142 ./build/stm32h7xx_hal_smbus_ex.o
                                0x6b4 (size before relaxing)
 .debug_str     0x000172ef       0x6a ./build/stm32h7xx_hal_pssi.o
                                0x1a2 (size before relaxing)
 .debug_str     0x00017359      0x231 ./build/stm32h7xx_hal_rng.o
                                0x440 (size before relaxing)
 .debug_str     0x0001758a      0x451 ./build/stm32h7xx_hal_flash_ex.o
                                0x959 (size before relaxing)
 .debug_str     0x000179db      0xb9d ./build/stm32h7xx_ll_rcc.o
                               0x10ca (size before relaxing)
 .debug_str     0x00018578      0x1d3 ./build/stm32h7xx_ll_usb.o
                                0xce6 (size before relaxing)
 .debug_str     0x0001874b      0x570 ./build/stm32h7xx_hal_irda.o
                                0xf48 (size before relaxing)
 .debug_str     0x00018cbb      0x3d1 ./build/stm32h7xx_hal_nor.o
                                0x853 (size before relaxing)
 .debug_str     0x0001908c      0x38c ./build/stm32h7xx_ll_exti.o
                                0x61b (size before relaxing)
 .debug_str     0x00019418      0x3ff ./build/stm32h7xx_hal_smbus.o
                                0x824 (size before relaxing)
 .debug_str     0x00019817      0x10d ./build/stm32h7xx_ll_comp.o
                                0x2a5 (size before relaxing)
 .debug_str     0x00019924      0x27e ./build/stm32h7xx_hal_cec.o
                                0x4eb (size before relaxing)
 .debug_str     0x00019ba2      0x20e ./build/stm32h7xx_ll_spi.o
                                0x712 (size before relaxing)
 .debug_str     0x00019db0      0x19b ./build/stm32h7xx_ll_lptim.o
                                0x715 (size before relaxing)
 .debug_str     0x00019f4b       0x6e ./build/stm32h7xx_hal_dfsdm_ex.o
                                0x1a6 (size before relaxing)
 .debug_str     0x00019fb9       0x69 ./build/stm32h7xx_hal_dts.o
                                0x1a1 (size before relaxing)
 .debug_str     0x0001a022      0x1b7 ./build/stm32h7xx_ll_hrtim.o
                                0x7b2 (size before relaxing)
 .debug_str     0x0001a1d9      0x245 ./build/stm32h7xx_hal_dac_ex.o
                                0x989 (size before relaxing)
 .debug_str     0x0001a41e      0x51b ./build/stm32h7xx_ll_tim.o
                                0xae4 (size before relaxing)
 .debug_str     0x0001a939       0x6a ./build/stm32h7xx_hal_fmac.o
                                0x1a2 (size before relaxing)
 .debug_str     0x0001a9a3      0x111 ./build/stm32h7xx_hal_i2c_ex.o
                                0xb20 (size before relaxing)
 .debug_str     0x0001aab4      0x21c ./build/stm32h7xx_ll_bdma.o
                                0x72d (size before relaxing)
 .debug_str     0x0001acd0      0x2a6 ./build/stm32h7xx_hal_sram.o
                                0xa36 (size before relaxing)
 .debug_str     0x0001af76      0x233 ./build/stm32h7xx_hal_dma_ex.o
                                0x7d7 (size before relaxing)
 .debug_str     0x0001b1a9       0xed ./build/stm32h7xx_ll_rng.o
                                0x4a5 (size before relaxing)
 .debug_str     0x0001b296       0x6d ./build/stm32h7xx_hal_ltdc_ex.o
                                0x1a5 (size before relaxing)
 .debug_str     0x0001b303      0x424 ./build/stm32h7xx_hal_swpmi.o
                                0xa3f (size before relaxing)
 .debug_str     0x0001b727      0x6f6 ./build/stm32h7xx_hal_hash_ex.o
                                0xbe3 (size before relaxing)
 .debug_str     0x0001be1d      0x65b ./build/stm32h7xx_hal_qspi.o
                                0xc46 (size before relaxing)
 .debug_str     0x0001c478      0x470 ./build/stm32h7xx_hal_nand.o
                                0x89f (size before relaxing)
 .debug_str     0x0001c8e8      0x492 ./build/stm32h7xx_hal_i2s.o
                                0xb4d (size before relaxing)
 .debug_str     0x0001cd7a      0x34a ./build/stm32h7xx_hal_sai_ex.o
                                0x8b6 (size before relaxing)
 .debug_str     0x0001d0c4      0x213 ./build/stm32h7xx_ll_sdmmc.o
                                0x860 (size before relaxing)
 .debug_str     0x0001d2d7      0x6f4 ./build/stm32h7xx_hal_ltdc.o
                                0x9b9 (size before relaxing)
 .debug_str     0x0001d9cb      0x32d ./build/stm32h7xx_hal_dma.o
                                0x9ac (size before relaxing)
 .debug_str     0x0001dcf8      0x46e ./build/stm32h7xx_hal_mdma.o
                                0xa0e (size before relaxing)
 .debug_str     0x0001e166      0x12e ./build/stm32h7xx_hal_mmc_ex.o
                                0x6a1 (size before relaxing)
 .debug_str     0x0001e294      0xbab ./build/stm32h7xx_hal_adc_ex.o
                               0x1412 (size before relaxing)
 .debug_str     0x0001ee3f      0x659 ./build/stm32h7xx_hal_tim_ex.o
                               0x1121 (size before relaxing)
 .debug_str     0x0001f498      0x4ac ./build/stm32h7xx_hal_eth_ex.o
                               0x1014 (size before relaxing)
 .debug_str     0x0001f944       0x69 ./build/stm32h7xx_ll_fmac.o
                                0x1a1 (size before relaxing)
 .debug_str     0x0001f9ad       0xee ./build/stm32h7xx_ll_delayblock.o
                                0x298 (size before relaxing)
 .debug_str     0x0001fa9b      0x45c ./build/stm32h7xx_ll_dma2d.o
                                0x929 (size before relaxing)
 .debug_str     0x0001fef7      0x557 ./build/stm32h7xx_hal_hash.o
                                0xdbb (size before relaxing)
 .debug_str     0x0002044e      0x45c ./build/stm32h7xx_ll_mdma.o
                                0x974 (size before relaxing)
 .debug_str     0x000208aa       0xe8 ./build/stm32h7xx_hal_cryp_ex.o
                                0x84a (size before relaxing)
 .debug_str     0x00020992      0x42e ./build/stm32h7xx_hal_sai.o
                                0xcf6 (size before relaxing)
 .debug_str     0x00020dc0       0x6c ./build/stm32h7xx_hal_gfxmmu.o
                                0x1a4 (size before relaxing)
 .debug_str     0x00020e2c      0x446 ./build/stm32h7xx_ll_utils.o
                                0xb2a (size before relaxing)
 .debug_str     0x00021272       0xb2 ./build/stm32h7xx_hal_gpio.o
                                0x6b5 (size before relaxing)
 .debug_str     0x00021324      0xb2d ./build/stm32h7xx_hal_jpeg.o
                               0x10bc (size before relaxing)
 .debug_str     0x00021e51       0x6a ./build/stm32h7xx_hal_ospi.o
                                0x1a2 (size before relaxing)
 .debug_str     0x00021ebb       0xea ./build/stm32h7xx_ll_opamp.o
                                0x284 (size before relaxing)
 .debug_str     0x00021fa5      0x5bb ./build/stm32h7xx_hal_adc.o
                               0x132e (size before relaxing)
 .debug_str     0x00022560      0x1db ./build/stm32h7xx_hal_pcd_ex.o
                                0x7fc (size before relaxing)
 .debug_str     0x0002273b      0x120 ./build/stm32h7xx_ll_dac.o
                                0x57e (size before relaxing)
 .debug_str     0x0002285b      0x157 ./build/stm32h7xx_hal_usart_ex.o
                                0x8d5 (size before relaxing)
 .debug_str     0x000229b2       0xd5 ./build/stm32h7xx_hal_crc_ex.o
                                0x419 (size before relaxing)
 .debug_str     0x00022a87      0x6dd ./build/stm32h7xx_hal_rtc_ex.o
                                0xd1a (size before relaxing)
 .debug_str     0x00023164       0x6c ./build/stm32h7xx_hal_otfdec.o
                                0x1a4 (size before relaxing)
 .debug_str     0x000231d0       0x44 ./build/main.o
                                 0xdf (size before relaxing)
 .debug_str     0x00023214       0xcc ./build/stm32h7xx_it.o
                                0x220 (size before relaxing)
 .debug_str     0x000232e0       0x51 ./build/stm32h7xx_hal_msp.o
                               0x1c0c (size before relaxing)
 .debug_str     0x00023331      0x1a8 ./build/bmi088_sample.o
                                0x72e (size before relaxing)
 .debug_str     0x000234d9      0x30d ./build/sensor_intf_bmi088.o
                                0xb04 (size before relaxing)
 .debug_str     0x000237e6      0x3a5 ./build/bmi088.o
                                0xca5 (size before relaxing)
 .debug_str     0x00023b8b       0x8c ./build/board.o
                                0xdba (size before relaxing)
 .debug_str     0x00023c17      0x141 ./build/sensor_intf_hmc5883l.o
                                0x9f4 (size before relaxing)
 .debug_str     0x00023d58      0x162 ./build/hmc5883l.o
                                0xa37 (size before relaxing)
 .debug_str     0x00023eba       0xd6 ./build/sensor_intf_mmc5983ma.o
                                0xa46 (size before relaxing)
 .debug_str     0x00023f90       0xcf ./build/mmc5983ma.o
                                0x945 (size before relaxing)
 .debug_str     0x0002405f       0x41 ./build/fport.o
                                 0xd7 (size before relaxing)
 .debug_str     0x000240a0       0xae ./build/spl06_001.o
                                0x84b (size before relaxing)
 .debug_str     0x0002414e      0x3b6 ./build/dfs.o
                                0xba6 (size before relaxing)
 .debug_str     0x00024504       0xb8 ./build/select.o
                                0x272 (size before relaxing)
 .debug_str     0x000245bc      0x1a6 ./build/dfs_file.o
                                0xa2c (size before relaxing)
 .debug_str     0x00024762      0x196 ./build/poll.o
                                0xae4 (size before relaxing)
 .debug_str     0x000248f8       0xf2 ./build/dfs_posix.o
                                0x9e4 (size before relaxing)
 .debug_str     0x000249ea      0x12a ./build/dfs_fs.o
                                0xa61 (size before relaxing)
 .debug_str     0x00024b14      0x2d4 ./build/audio_pipe.o
                                0x9fe (size before relaxing)
 .debug_str     0x00024de8      0x465 ./build/audio.o
                                0xdc2 (size before relaxing)
 .debug_str     0x0002524d      0x242 ./build/can.o
                                0xc3c (size before relaxing)
 .debug_str     0x0002548f       0xc3 ./build/i2c_dev.o
                                0x7f2 (size before relaxing)
 .debug_str     0x00025552      0x153 ./build/i2c-bit-ops.o
                                0x893 (size before relaxing)
 .debug_str     0x000256a5       0x6e ./build/i2c_core.o
                                0x819 (size before relaxing)
 .debug_str     0x00025713       0x50 ./build/completion.o
                                0x46f (size before relaxing)
 .debug_str     0x00025763       0xa0 ./build/waitqueue.o
                                0x518 (size before relaxing)
 .debug_str     0x00025803      0x113 ./build/pipe.o
                                0x931 (size before relaxing)
 .debug_str     0x00025916       0xff ./build/ringbuffer.o
                                0x3b9 (size before relaxing)
 .debug_str     0x00025a15       0x81 ./build/dataqueue.o
                                0x57f (size before relaxing)
 .debug_str     0x00025a96      0x239 ./build/workqueue.o
                                0x6e6 (size before relaxing)
 .debug_str     0x00025ccf      0x30e ./build/ringblk_buf.o
                                0x528 (size before relaxing)
 .debug_str     0x00025fdd      0x10d ./build/adc.o
                                0x6df (size before relaxing)
 .debug_str     0x000260ea       0xb1 ./build/pin.o
                                0x6c4 (size before relaxing)
 .debug_str     0x0002619b      0x2c1 ./build/sd.o
                                0xadd (size before relaxing)
 .debug_str     0x0002645c      0x43a ./build/sdio.o
                                0xe41 (size before relaxing)
 .debug_str     0x00026896       0xff ./build/mmc.o
                                0xad6 (size before relaxing)
 .debug_str     0x00026995      0x20d ./build/mmcsd_core.o
                                0xcba (size before relaxing)
 .debug_str     0x00026ba2      0x16d ./build/block_dev.o
                                0xeb3 (size before relaxing)
 .debug_str     0x00026d0f      0x1b8 ./build/sensor_cmd.o
                                0xb45 (size before relaxing)
 .debug_str     0x00026ec7      0x106 ./build/sensor.o
                                0x993 (size before relaxing)
 .debug_str     0x00026fcd      0x21b ./build/serial_v2.o
                                0xa57 (size before relaxing)
 .debug_str     0x000271e8      0x109 ./build/spi_core.o
                                0x8eb (size before relaxing)
 .debug_str     0x000272f1      0x2ce ./build/spi_msd.o
                                0xb7d (size before relaxing)
 .debug_str     0x000275bf       0xbe ./build/spi_dev.o
                                0x813 (size before relaxing)
 .debug_str     0x0002767d      0xbb3 ./build/winusb.o
                               0x12c3 (size before relaxing)
 .debug_str     0x00028230      0x3f3 ./build/audio_mic.o
                               0x1525 (size before relaxing)
 .debug_str     0x00028623       0x4c ./build/cdc_vcom.o
                                0x177 (size before relaxing)
 .debug_str     0x0002866f       0x47 ./build/hid.o
                                0x172 (size before relaxing)
 .debug_str     0x000286b6       0xd6 ./build/mstorage.o
                                0x232 (size before relaxing)
 .debug_str     0x0002878c      0x127 ./build/audio_speaker.o
                               0x1555 (size before relaxing)
 .debug_str     0x000288b3       0x47 ./build/ecm.o
                                0x172 (size before relaxing)
 .debug_str     0x000288fa       0x49 ./build/rndis.o
                                0x174 (size before relaxing)
 .debug_str     0x00028943      0x749 ./build/usbdevice_core.o
                               0x1844 (size before relaxing)
 .debug_str     0x0002908c       0xa3 ./build/usbdevice.o
                                0xd70 (size before relaxing)
 .debug_str     0x0002912f      0x573 ./build/cmd.o
                                0xdcb (size before relaxing)
 .debug_str     0x000296a2      0x1ce ./build/msh.o
                                0x3af (size before relaxing)
 .debug_str     0x00029870      0x268 ./build/shell.o
                                0xa85 (size before relaxing)
 .debug_str     0x00029ad8       0x36 ./build/msh_file.o
                                0x155 (size before relaxing)
 .debug_str     0x00029b0e      0x19a ./build/cpuport.o
                                0x37c (size before relaxing)
 .debug_str     0x00029ca8      0x14c ./build/components.o
                                0x4a3 (size before relaxing)
 .debug_str     0x00029df4      0x1be ./build/timer.o
                                0x681 (size before relaxing)
 .debug_str     0x00029fb2      0x1e5 ./build/thread.o
                                0x82f (size before relaxing)
 .debug_str     0x0002a197       0x25 ./build/slab.o
                                0x144 (size before relaxing)
 .debug_str     0x0002a1bc       0x28 ./build/memheap.o
                                0x147 (size before relaxing)
 .debug_str     0x0002a1e4      0x23b ./build/object.o
                                0x75f (size before relaxing)
 .debug_str     0x0002a41f       0x27 ./build/signal.o
                                0x152 (size before relaxing)
 .debug_str     0x0002a446       0x24 ./build/cpu.o
                                0x143 (size before relaxing)
 .debug_str     0x0002a46a       0x78 ./build/device.o
                                0x84e (size before relaxing)
 .debug_str     0x0002a4e2      0x1c8 ./build/ipc.o
                                0xa77 (size before relaxing)
 .debug_str     0x0002a6aa      0x306 ./build/kservice.o
                                0xbb7 (size before relaxing)
 .debug_str     0x0002a9b0       0x6f ./build/clock.o
                                0x398 (size before relaxing)
 .debug_str     0x0002aa1f      0x1d9 ./build/scheduler.o
                                0x623 (size before relaxing)
 .debug_str     0x0002abf8       0x8a ./build/irq.o
                                0x246 (size before relaxing)
 .debug_str     0x0002ac82       0xaa ./build/mempool.o
                                0x712 (size before relaxing)
 .debug_str     0x0002ad2c       0xf6 ./build/idle.o
                                0x49d (size before relaxing)
 .debug_str     0x0002ae22       0xb7 ./build/mem.o
                                0x4ff (size before relaxing)
 .debug_str     0x0002aed9       0x8f ./build/startup_stm32h750xx.o
                                 0xb2 (size before relaxing)
 .debug_str     0x0002af68       0x3d ./build/context_gcc.o
                                 0x6e (size before relaxing)

.comment        0x00000000       0x49
 .comment       0x00000000       0x49 ./build/drv_sdio.o
                                 0x4a (size before relaxing)
 .comment       0x00000049       0x4a ./build/drv_usart_v2.o
 .comment       0x00000049       0x4a ./build/drv_soft_i2c.o
 .comment       0x00000049       0x4a ./build/drv_gpio.o
 .comment       0x00000049       0x4a ./build/drv_spi.o
 .comment       0x00000049       0x4a ./build/drv_adc.o
 .comment       0x00000049       0x4a ./build/drv_common.o
 .comment       0x00000049       0x4a ./build/drv_fdcan.o
 .comment       0x00000049       0x4a ./build/drv_flash_h7.o
 .comment       0x00000049       0x4a ./build/system_stm32h7xx.o
 .comment       0x00000049       0x4a ./build/stm32h7xx_ll_dma.o
 .comment       0x00000049       0x4a ./build/stm32h7xx_hal_cryp.o
 .comment       0x00000049       0x4a ./build/stm32h7xx_hal_hrtim.o
 .comment       0x00000049       0x4a ./build/stm32h7xx_hal.o
 .comment       0x00000049       0x4a ./build/stm32h7xx_hal_rcc_ex.o
 .comment       0x00000049       0x4a ./build/stm32h7xx_hal_fdcan.o
 .comment       0x00000049       0x4a ./build/stm32h7xx_hal_sd_ex.o
 .comment       0x00000049       0x4a ./build/stm32h7xx_hal_hcd.o
 .comment       0x00000049       0x4a ./build/stm32h7xx_hal_tim.o
 .comment       0x00000049       0x4a ./build/stm32h7xx_hal_pcd.o
 .comment       0x00000049       0x4a ./build/stm32h7xx_hal_dcmi.o
 .comment       0x00000049       0x4a ./build/stm32h7xx_hal_usart.o
 .comment       0x00000049       0x4a ./build/stm32h7xx_hal_crc.o
 .comment       0x00000049       0x4a ./build/stm32h7xx_hal_opamp_ex.o
 .comment       0x00000049       0x4a ./build/stm32h7xx_hal_dac.o
 .comment       0x00000049       0x4a ./build/stm32h7xx_hal_pwr_ex.o
 .comment       0x00000049       0x4a ./build/stm32h7xx_hal_cordic.o
 .comment       0x00000049       0x4a ./build/stm32h7xx_hal_dsi.o
 .comment       0x00000049       0x4a ./build/stm32h7xx_ll_adc.o
 .comment       0x00000049       0x4a ./build/stm32h7xx_ll_swpmi.o
 .comment       0x00000049       0x4a ./build/stm32h7xx_hal_msp_template.o
 .comment       0x00000049       0x4a ./build/stm32h7xx_hal_opamp.o
 .comment       0x00000049       0x4a ./build/stm32h7xx_hal_rcc.o
 .comment       0x00000049       0x4a ./build/stm32h7xx_hal_exti.o
 .comment       0x00000049       0x4a ./build/stm32h7xx_hal_sd.o
 .comment       0x00000049       0x4a ./build/stm32h7xx_ll_lpuart.o
 .comment       0x00000049       0x4a ./build/stm32h7xx_hal_eth.o
 .comment       0x00000049       0x4a ./build/stm32h7xx_hal_i2s_ex.o
 .comment       0x00000049       0x4a ./build/stm32h7xx_hal_dma2d.o
 .comment       0x00000049       0x4a ./build/stm32h7xx_hal_i2c.o
 .comment       0x00000049       0x4a ./build/stm32h7xx_hal_iwdg.o
 .comment       0x00000049       0x4a ./build/stm32h7xx_hal_flash.o
 .comment       0x00000049       0x4a ./build/stm32h7xx_hal_smartcard.o
 .comment       0x00000049       0x4a ./build/stm32h7xx_hal_pwr.o
 .comment       0x00000049       0x4a ./build/stm32h7xx_hal_rtc.o
 .comment       0x00000049       0x4a ./build/stm32h7xx_hal_ramecc.o
 .comment       0x00000049       0x4a ./build/stm32h7xx_ll_usart.o
 .comment       0x00000049       0x4a ./build/stm32h7xx_hal_spdifrx.o
 .comment       0x00000049       0x4a ./build/stm32h7xx_ll_crc.o
 .comment       0x00000049       0x4a ./build/stm32h7xx_hal_mdios.o
 .comment       0x00000049       0x4a ./build/stm32h7xx_hal_spi_ex.o
 .comment       0x00000049       0x4a ./build/stm32h7xx_ll_cordic.o
 .comment       0x00000049       0x4a ./build/stm32h7xx_hal_uart_ex.o
 .comment       0x00000049       0x4a ./build/stm32h7xx_hal_dfsdm.o
 .comment       0x00000049       0x4a ./build/stm32h7xx_hal_cortex.o
 .comment       0x00000049       0x4a ./build/stm32h7xx_hal_hsem.o
 .comment       0x00000049       0x4a ./build/stm32h7xx_ll_fmc.o
 .comment       0x00000049       0x4a ./build/stm32h7xx_hal_rng_ex.o
 .comment       0x00000049       0x4a ./build/stm32h7xx_hal_smartcard_ex.o
 .comment       0x00000049       0x4a ./build/stm32h7xx_ll_crs.o
 .comment       0x00000049       0x4a ./build/stm32h7xx_hal_lptim.o
 .comment       0x00000049       0x4a ./build/stm32h7xx_ll_i2c.o
 .comment       0x00000049       0x4a ./build/stm32h7xx_hal_comp.o
 .comment       0x00000049       0x4a ./build/stm32h7xx_ll_gpio.o
 .comment       0x00000049       0x4a ./build/stm32h7xx_hal_mmc.o
 .comment       0x00000049       0x4a ./build/stm32h7xx_hal_spi.o
 .comment       0x00000049       0x4a ./build/stm32h7xx_ll_rtc.o
 .comment       0x00000049       0x4a ./build/stm32h7xx_hal_uart.o
 .comment       0x00000049       0x4a ./build/stm32h7xx_hal_sdram.o
 .comment       0x00000049       0x4a ./build/stm32h7xx_hal_wwdg.o
 .comment       0x00000049       0x4a ./build/stm32h7xx_ll_pwr.o
 .comment       0x00000049       0x4a ./build/stm32h7xx_hal_smbus_ex.o
 .comment       0x00000049       0x4a ./build/stm32h7xx_hal_pssi.o
 .comment       0x00000049       0x4a ./build/stm32h7xx_hal_rng.o
 .comment       0x00000049       0x4a ./build/stm32h7xx_hal_flash_ex.o
 .comment       0x00000049       0x4a ./build/stm32h7xx_ll_rcc.o
 .comment       0x00000049       0x4a ./build/stm32h7xx_ll_usb.o
 .comment       0x00000049       0x4a ./build/stm32h7xx_hal_irda.o
 .comment       0x00000049       0x4a ./build/stm32h7xx_hal_nor.o
 .comment       0x00000049       0x4a ./build/stm32h7xx_ll_exti.o
 .comment       0x00000049       0x4a ./build/stm32h7xx_hal_smbus.o
 .comment       0x00000049       0x4a ./build/stm32h7xx_ll_comp.o
 .comment       0x00000049       0x4a ./build/stm32h7xx_hal_cec.o
 .comment       0x00000049       0x4a ./build/stm32h7xx_ll_spi.o
 .comment       0x00000049       0x4a ./build/stm32h7xx_ll_lptim.o
 .comment       0x00000049       0x4a ./build/stm32h7xx_hal_dfsdm_ex.o
 .comment       0x00000049       0x4a ./build/stm32h7xx_hal_dts.o
 .comment       0x00000049       0x4a ./build/stm32h7xx_ll_hrtim.o
 .comment       0x00000049       0x4a ./build/stm32h7xx_hal_dac_ex.o
 .comment       0x00000049       0x4a ./build/stm32h7xx_ll_tim.o
 .comment       0x00000049       0x4a ./build/stm32h7xx_hal_fmac.o
 .comment       0x00000049       0x4a ./build/stm32h7xx_hal_i2c_ex.o
 .comment       0x00000049       0x4a ./build/stm32h7xx_ll_bdma.o
 .comment       0x00000049       0x4a ./build/stm32h7xx_hal_sram.o
 .comment       0x00000049       0x4a ./build/stm32h7xx_hal_dma_ex.o
 .comment       0x00000049       0x4a ./build/stm32h7xx_ll_rng.o
 .comment       0x00000049       0x4a ./build/stm32h7xx_hal_ltdc_ex.o
 .comment       0x00000049       0x4a ./build/stm32h7xx_hal_swpmi.o
 .comment       0x00000049       0x4a ./build/stm32h7xx_hal_hash_ex.o
 .comment       0x00000049       0x4a ./build/stm32h7xx_hal_qspi.o
 .comment       0x00000049       0x4a ./build/stm32h7xx_hal_nand.o
 .comment       0x00000049       0x4a ./build/stm32h7xx_hal_i2s.o
 .comment       0x00000049       0x4a ./build/stm32h7xx_hal_sai_ex.o
 .comment       0x00000049       0x4a ./build/stm32h7xx_ll_sdmmc.o
 .comment       0x00000049       0x4a ./build/stm32h7xx_hal_ltdc.o
 .comment       0x00000049       0x4a ./build/stm32h7xx_hal_dma.o
 .comment       0x00000049       0x4a ./build/stm32h7xx_hal_mdma.o
 .comment       0x00000049       0x4a ./build/stm32h7xx_hal_mmc_ex.o
 .comment       0x00000049       0x4a ./build/stm32h7xx_hal_adc_ex.o
 .comment       0x00000049       0x4a ./build/stm32h7xx_hal_tim_ex.o
 .comment       0x00000049       0x4a ./build/stm32h7xx_hal_eth_ex.o
 .comment       0x00000049       0x4a ./build/stm32h7xx_ll_fmac.o
 .comment       0x00000049       0x4a ./build/stm32h7xx_ll_delayblock.o
 .comment       0x00000049       0x4a ./build/stm32h7xx_ll_dma2d.o
 .comment       0x00000049       0x4a ./build/stm32h7xx_hal_hash.o
 .comment       0x00000049       0x4a ./build/stm32h7xx_ll_mdma.o
 .comment       0x00000049       0x4a ./build/stm32h7xx_hal_cryp_ex.o
 .comment       0x00000049       0x4a ./build/stm32h7xx_hal_sai.o
 .comment       0x00000049       0x4a ./build/stm32h7xx_hal_gfxmmu.o
 .comment       0x00000049       0x4a ./build/stm32h7xx_ll_utils.o
 .comment       0x00000049       0x4a ./build/stm32h7xx_hal_gpio.o
 .comment       0x00000049       0x4a ./build/stm32h7xx_hal_jpeg.o
 .comment       0x00000049       0x4a ./build/stm32h7xx_hal_ospi.o
 .comment       0x00000049       0x4a ./build/stm32h7xx_ll_opamp.o
 .comment       0x00000049       0x4a ./build/stm32h7xx_hal_adc.o
 .comment       0x00000049       0x4a ./build/stm32h7xx_hal_pcd_ex.o
 .comment       0x00000049       0x4a ./build/stm32h7xx_ll_dac.o
 .comment       0x00000049       0x4a ./build/stm32h7xx_hal_usart_ex.o
 .comment       0x00000049       0x4a ./build/stm32h7xx_hal_crc_ex.o
 .comment       0x00000049       0x4a ./build/stm32h7xx_hal_rtc_ex.o
 .comment       0x00000049       0x4a ./build/stm32h7xx_hal_otfdec.o
 .comment       0x00000049       0x4a ./build/main.o
 .comment       0x00000049       0x4a ./build/stm32h7xx_it.o
 .comment       0x00000049       0x4a ./build/stm32h7xx_hal_msp.o
 .comment       0x00000049       0x4a ./build/bmi088_sample.o
 .comment       0x00000049       0x4a ./build/sensor_intf_bmi088.o
 .comment       0x00000049       0x4a ./build/bmi088.o
 .comment       0x00000049       0x4a ./build/board.o
 .comment       0x00000049       0x4a ./build/sensor_intf_hmc5883l.o
 .comment       0x00000049       0x4a ./build/hmc5883l.o
 .comment       0x00000049       0x4a ./build/sensor_intf_mmc5983ma.o
 .comment       0x00000049       0x4a ./build/mmc5983ma.o
 .comment       0x00000049       0x4a ./build/fport.o
 .comment       0x00000049       0x4a ./build/spl06_001.o
 .comment       0x00000049       0x4a ./build/dfs.o
 .comment       0x00000049       0x4a ./build/select.o
 .comment       0x00000049       0x4a ./build/dfs_file.o
 .comment       0x00000049       0x4a ./build/poll.o
 .comment       0x00000049       0x4a ./build/dfs_posix.o
 .comment       0x00000049       0x4a ./build/dfs_fs.o
 .comment       0x00000049       0x4a ./build/audio_pipe.o
 .comment       0x00000049       0x4a ./build/audio.o
 .comment       0x00000049       0x4a ./build/can.o
 .comment       0x00000049       0x4a ./build/i2c_dev.o
 .comment       0x00000049       0x4a ./build/i2c-bit-ops.o
 .comment       0x00000049       0x4a ./build/i2c_core.o
 .comment       0x00000049       0x4a ./build/completion.o
 .comment       0x00000049       0x4a ./build/waitqueue.o
 .comment       0x00000049       0x4a ./build/pipe.o
 .comment       0x00000049       0x4a ./build/ringbuffer.o
 .comment       0x00000049       0x4a ./build/dataqueue.o
 .comment       0x00000049       0x4a ./build/workqueue.o
 .comment       0x00000049       0x4a ./build/ringblk_buf.o
 .comment       0x00000049       0x4a ./build/adc.o
 .comment       0x00000049       0x4a ./build/pin.o
 .comment       0x00000049       0x4a ./build/sd.o
 .comment       0x00000049       0x4a ./build/sdio.o
 .comment       0x00000049       0x4a ./build/mmc.o
 .comment       0x00000049       0x4a ./build/mmcsd_core.o
 .comment       0x00000049       0x4a ./build/block_dev.o
 .comment       0x00000049       0x4a ./build/sensor_cmd.o
 .comment       0x00000049       0x4a ./build/sensor.o
 .comment       0x00000049       0x4a ./build/serial_v2.o
 .comment       0x00000049       0x4a ./build/spi_core.o
 .comment       0x00000049       0x4a ./build/spi_msd.o
 .comment       0x00000049       0x4a ./build/spi_dev.o
 .comment       0x00000049       0x4a ./build/winusb.o
 .comment       0x00000049       0x4a ./build/audio_mic.o
 .comment       0x00000049       0x4a ./build/cdc_vcom.o
 .comment       0x00000049       0x4a ./build/hid.o
 .comment       0x00000049       0x4a ./build/mstorage.o
 .comment       0x00000049       0x4a ./build/audio_speaker.o
 .comment       0x00000049       0x4a ./build/ecm.o
 .comment       0x00000049       0x4a ./build/rndis.o
 .comment       0x00000049       0x4a ./build/usbdevice_core.o
 .comment       0x00000049       0x4a ./build/usbdevice.o
 .comment       0x00000049       0x4a ./build/cmd.o
 .comment       0x00000049       0x4a ./build/msh.o
 .comment       0x00000049       0x4a ./build/shell.o
 .comment       0x00000049       0x4a ./build/msh_file.o
 .comment       0x00000049       0x4a ./build/cpuport.o
 .comment       0x00000049       0x4a ./build/components.o
 .comment       0x00000049       0x4a ./build/timer.o
 .comment       0x00000049       0x4a ./build/thread.o
 .comment       0x00000049       0x4a ./build/slab.o
 .comment       0x00000049       0x4a ./build/memheap.o
 .comment       0x00000049       0x4a ./build/object.o
 .comment       0x00000049       0x4a ./build/signal.o
 .comment       0x00000049       0x4a ./build/cpu.o
 .comment       0x00000049       0x4a ./build/device.o
 .comment       0x00000049       0x4a ./build/ipc.o
 .comment       0x00000049       0x4a ./build/kservice.o
 .comment       0x00000049       0x4a ./build/clock.o
 .comment       0x00000049       0x4a ./build/scheduler.o
 .comment       0x00000049       0x4a ./build/irq.o
 .comment       0x00000049       0x4a ./build/mempool.o
 .comment       0x00000049       0x4a ./build/idle.o
 .comment       0x00000049       0x4a ./build/mem.o

.debug_frame    0x00000000    0x16648
 .debug_frame   0x00000000      0x154 ./build/drv_sdio.o
 .debug_frame   0x00000154      0x240 ./build/drv_usart_v2.o
 .debug_frame   0x00000394       0xe0 ./build/drv_soft_i2c.o
 .debug_frame   0x00000474      0x1c0 ./build/drv_gpio.o
 .debug_frame   0x00000634       0xd8 ./build/drv_spi.o
 .debug_frame   0x0000070c      0x124 ./build/drv_common.o
 .debug_frame   0x00000830      0x17c ./build/drv_fdcan.o
 .debug_frame   0x000009ac       0x3c ./build/system_stm32h7xx.o
 .debug_frame   0x000009e8       0x64 ./build/stm32h7xx_ll_dma.o
 .debug_frame   0x00000a4c      0x520 ./build/stm32h7xx_hal_cryp.o
 .debug_frame   0x00000f6c      0xbf4 ./build/stm32h7xx_hal_hrtim.o
 .debug_frame   0x00001b60      0x360 ./build/stm32h7xx_hal.o
 .debug_frame   0x00001ec0      0x26c ./build/stm32h7xx_hal_rcc_ex.o
 .debug_frame   0x0000212c      0x7b4 ./build/stm32h7xx_hal_fdcan.o
 .debug_frame   0x000028e0       0x84 ./build/stm32h7xx_hal_sd_ex.o
 .debug_frame   0x00002964      0x298 ./build/stm32h7xx_hal_hcd.o
 .debug_frame   0x00002bfc      0xb6c ./build/stm32h7xx_hal_tim.o
 .debug_frame   0x00003768      0x378 ./build/stm32h7xx_hal_pcd.o
 .debug_frame   0x00003ae0      0x1c0 ./build/stm32h7xx_hal_dcmi.o
 .debug_frame   0x00003ca0      0x4a8 ./build/stm32h7xx_hal_usart.o
 .debug_frame   0x00004148       0xec ./build/stm32h7xx_hal_crc.o
 .debug_frame   0x00004234       0x5c ./build/stm32h7xx_hal_opamp_ex.o
 .debug_frame   0x00004290      0x1ec ./build/stm32h7xx_hal_dac.o
 .debug_frame   0x0000447c      0x2f4 ./build/stm32h7xx_hal_pwr_ex.o
 .debug_frame   0x00004770       0xfc ./build/stm32h7xx_ll_adc.o
 .debug_frame   0x0000486c       0x40 ./build/stm32h7xx_ll_swpmi.o
 .debug_frame   0x000048ac       0x50 ./build/stm32h7xx_hal_msp_template.o
 .debug_frame   0x000048fc      0x10c ./build/stm32h7xx_hal_opamp.o
 .debug_frame   0x00004a08      0x18c ./build/stm32h7xx_hal_rcc.o
 .debug_frame   0x00004b94      0x100 ./build/stm32h7xx_hal_exti.o
 .debug_frame   0x00004c94      0x4bc ./build/stm32h7xx_hal_sd.o
 .debug_frame   0x00005150       0x50 ./build/stm32h7xx_ll_lpuart.o
 .debug_frame   0x000051a0      0x4e4 ./build/stm32h7xx_hal_eth.o
 .debug_frame   0x00005684      0x358 ./build/stm32h7xx_hal_dma2d.o
 .debug_frame   0x000059dc      0x938 ./build/stm32h7xx_hal_i2c.o
 .debug_frame   0x00006314       0x44 ./build/stm32h7xx_hal_iwdg.o
 .debug_frame   0x00006358      0x148 ./build/stm32h7xx_hal_flash.o
 .debug_frame   0x000064a0      0x44c ./build/stm32h7xx_hal_smartcard.o
 .debug_frame   0x000068ec      0x128 ./build/stm32h7xx_hal_pwr.o
 .debug_frame   0x00006a14      0x228 ./build/stm32h7xx_hal_rtc.o
 .debug_frame   0x00006c3c      0x128 ./build/stm32h7xx_hal_ramecc.o
 .debug_frame   0x00006d64       0x78 ./build/stm32h7xx_ll_usart.o
 .debug_frame   0x00006ddc      0x2b8 ./build/stm32h7xx_hal_spdifrx.o
 .debug_frame   0x00007094       0x20 ./build/stm32h7xx_ll_crc.o
 .debug_frame   0x000070b4      0x150 ./build/stm32h7xx_hal_mdios.o
 .debug_frame   0x00007204       0x64 ./build/stm32h7xx_hal_spi_ex.o
 .debug_frame   0x00007268      0x1bc ./build/stm32h7xx_hal_uart_ex.o
 .debug_frame   0x00007424      0x62c ./build/stm32h7xx_hal_dfsdm.o
 .debug_frame   0x00007a50      0x158 ./build/stm32h7xx_hal_cortex.o
 .debug_frame   0x00007ba8       0xc8 ./build/stm32h7xx_hal_hsem.o
 .debug_frame   0x00007c70      0x1d4 ./build/stm32h7xx_ll_fmc.o
 .debug_frame   0x00007e44       0xe4 ./build/stm32h7xx_hal_smartcard_ex.o
 .debug_frame   0x00007f28       0x20 ./build/stm32h7xx_ll_crs.o
 .debug_frame   0x00007f48      0x3dc ./build/stm32h7xx_hal_lptim.o
 .debug_frame   0x00008324       0x4c ./build/stm32h7xx_ll_i2c.o
 .debug_frame   0x00008370      0x140 ./build/stm32h7xx_hal_comp.o
 .debug_frame   0x000084b0       0x4c ./build/stm32h7xx_ll_gpio.o
 .debug_frame   0x000084fc      0x580 ./build/stm32h7xx_hal_mmc.o
 .debug_frame   0x00008a7c      0x4b8 ./build/stm32h7xx_hal_spi.o
 .debug_frame   0x00008f34      0x13c ./build/stm32h7xx_ll_rtc.o
 .debug_frame   0x00009070      0x688 ./build/stm32h7xx_hal_uart.o
 .debug_frame   0x000096f8      0x27c ./build/stm32h7xx_hal_sdram.o
 .debug_frame   0x00009974       0x74 ./build/stm32h7xx_hal_wwdg.o
 .debug_frame   0x000099e8       0x20 ./build/stm32h7xx_ll_pwr.o
 .debug_frame   0x00009a08       0x60 ./build/stm32h7xx_hal_smbus_ex.o
 .debug_frame   0x00009a68      0x108 ./build/stm32h7xx_hal_rng.o
 .debug_frame   0x00009b70      0x214 ./build/stm32h7xx_hal_flash_ex.o
 .debug_frame   0x00009d84      0x348 ./build/stm32h7xx_ll_rcc.o
 .debug_frame   0x0000a0cc      0x4b0 ./build/stm32h7xx_ll_usb.o
 .debug_frame   0x0000a57c      0x468 ./build/stm32h7xx_hal_irda.o
 .debug_frame   0x0000a9e4      0x1fc ./build/stm32h7xx_hal_nor.o
 .debug_frame   0x0000abe0       0x4c ./build/stm32h7xx_ll_exti.o
 .debug_frame   0x0000ac2c      0x3b8 ./build/stm32h7xx_hal_smbus.o
 .debug_frame   0x0000afe4       0x4c ./build/stm32h7xx_ll_comp.o
 .debug_frame   0x0000b030      0x130 ./build/stm32h7xx_hal_cec.o
 .debug_frame   0x0000b160       0xb4 ./build/stm32h7xx_ll_spi.o
 .debug_frame   0x0000b214       0x7c ./build/stm32h7xx_ll_lptim.o
 .debug_frame   0x0000b290       0x20 ./build/stm32h7xx_ll_hrtim.o
 .debug_frame   0x0000b2b0      0x1cc ./build/stm32h7xx_hal_dac_ex.o
 .debug_frame   0x0000b47c      0x24c ./build/stm32h7xx_ll_tim.o
 .debug_frame   0x0000b6c8       0x80 ./build/stm32h7xx_hal_i2c_ex.o
 .debug_frame   0x0000b748       0x4c ./build/stm32h7xx_ll_bdma.o
 .debug_frame   0x0000b794      0x20c ./build/stm32h7xx_hal_sram.o
 .debug_frame   0x0000b9a0      0x104 ./build/stm32h7xx_hal_dma_ex.o
 .debug_frame   0x0000baa4       0x40 ./build/stm32h7xx_ll_rng.o
 .debug_frame   0x0000bae4      0x340 ./build/stm32h7xx_hal_swpmi.o
 .debug_frame   0x0000be24      0x3a0 ./build/stm32h7xx_hal_hash_ex.o
 .debug_frame   0x0000c1c4      0x3dc ./build/stm32h7xx_hal_qspi.o
 .debug_frame   0x0000c5a0      0x27c ./build/stm32h7xx_hal_nand.o
 .debug_frame   0x0000c81c      0x3ec ./build/stm32h7xx_hal_i2s.o
 .debug_frame   0x0000cc08       0x30 ./build/stm32h7xx_hal_sai_ex.o
 .debug_frame   0x0000cc38      0x51c ./build/stm32h7xx_ll_sdmmc.o
 .debug_frame   0x0000d154      0x3cc ./build/stm32h7xx_hal_ltdc.o
 .debug_frame   0x0000d520      0x1fc ./build/stm32h7xx_hal_dma.o
 .debug_frame   0x0000d71c      0x264 ./build/stm32h7xx_hal_mdma.o
 .debug_frame   0x0000d980       0x84 ./build/stm32h7xx_hal_mmc_ex.o
 .debug_frame   0x0000da04      0x334 ./build/stm32h7xx_hal_adc_ex.o
 .debug_frame   0x0000dd38      0x480 ./build/stm32h7xx_hal_tim_ex.o
 .debug_frame   0x0000e1b8      0x1ac ./build/stm32h7xx_hal_eth_ex.o
 .debug_frame   0x0000e364       0x64 ./build/stm32h7xx_ll_delayblock.o
 .debug_frame   0x0000e3c8       0xe8 ./build/stm32h7xx_ll_dma2d.o
 .debug_frame   0x0000e4b0      0x5d8 ./build/stm32h7xx_hal_hash.o
 .debug_frame   0x0000ea88       0x7c ./build/stm32h7xx_ll_mdma.o
 .debug_frame   0x0000eb04       0x60 ./build/stm32h7xx_hal_cryp_ex.o
 .debug_frame   0x0000eb64      0x43c ./build/stm32h7xx_hal_sai.o
 .debug_frame   0x0000efa0       0xe0 ./build/stm32h7xx_ll_utils.o
 .debug_frame   0x0000f080       0xd4 ./build/stm32h7xx_hal_gpio.o
 .debug_frame   0x0000f154      0x5a0 ./build/stm32h7xx_hal_jpeg.o
 .debug_frame   0x0000f6f4       0x4c ./build/stm32h7xx_ll_opamp.o
 .debug_frame   0x0000f740      0x2f0 ./build/stm32h7xx_hal_adc.o
 .debug_frame   0x0000fa30       0xb8 ./build/stm32h7xx_hal_pcd_ex.o
 .debug_frame   0x0000fae8       0x50 ./build/stm32h7xx_ll_dac.o
 .debug_frame   0x0000fb38      0x108 ./build/stm32h7xx_hal_usart_ex.o
 .debug_frame   0x0000fc40       0x4c ./build/stm32h7xx_hal_crc_ex.o
 .debug_frame   0x0000fc8c      0x410 ./build/stm32h7xx_hal_rtc_ex.o
 .debug_frame   0x0001009c       0x20 ./build/main.o
 .debug_frame   0x000100bc       0xa8 ./build/stm32h7xx_it.o
 .debug_frame   0x00010164       0xfc ./build/stm32h7xx_hal_msp.o
 .debug_frame   0x00010260       0x28 ./build/bmi088_sample.o
 .debug_frame   0x00010288       0xb8 ./build/sensor_intf_bmi088.o
 .debug_frame   0x00010340      0x218 ./build/bmi088.o
 .debug_frame   0x00010558       0x74 ./build/board.o
 .debug_frame   0x000105cc       0xa4 ./build/sensor_intf_hmc5883l.o
 .debug_frame   0x00010670       0x84 ./build/hmc5883l.o
 .debug_frame   0x000106f4       0x80 ./build/sensor_intf_mmc5983ma.o
 .debug_frame   0x00010774       0x30 ./build/mmc5983ma.o
 .debug_frame   0x000107a4       0x5c ./build/spl06_001.o
 .debug_frame   0x00010800      0x168 ./build/dfs.o
 .debug_frame   0x00010968       0x54 ./build/select.o
 .debug_frame   0x000109bc      0x298 ./build/dfs_file.o
 .debug_frame   0x00010c54      0x104 ./build/poll.o
 .debug_frame   0x00010d58      0x2e0 ./build/dfs_posix.o
 .debug_frame   0x00011038      0x140 ./build/dfs_fs.o
 .debug_frame   0x00011178      0x128 ./build/audio_pipe.o
 .debug_frame   0x000112a0      0x1dc ./build/audio.o
 .debug_frame   0x0001147c      0x190 ./build/can.o
 .debug_frame   0x0001160c       0x98 ./build/i2c_dev.o
 .debug_frame   0x000116a4      0x18c ./build/i2c-bit-ops.o
 .debug_frame   0x00011830       0xd4 ./build/i2c_core.o
 .debug_frame   0x00011904       0x6c ./build/completion.o
 .debug_frame   0x00011970       0xa4 ./build/waitqueue.o
 .debug_frame   0x00011a14       0xd8 ./build/pipe.o
 .debug_frame   0x00011aec      0x15c ./build/ringbuffer.o
 .debug_frame   0x00011c48       0xf8 ./build/dataqueue.o
 .debug_frame   0x00011d40      0x194 ./build/workqueue.o
 .debug_frame   0x00011ed4      0x1d0 ./build/ringblk_buf.o
 .debug_frame   0x000120a4       0xe8 ./build/adc.o
 .debug_frame   0x0001218c      0x144 ./build/pin.o
 .debug_frame   0x000122d0      0x1ac ./build/sd.o
 .debug_frame   0x0001247c      0x514 ./build/sdio.o
 .debug_frame   0x00012990      0x170 ./build/mmc.o
 .debug_frame   0x00012b00      0x340 ./build/mmcsd_core.o
 .debug_frame   0x00012e40      0x188 ./build/block_dev.o
 .debug_frame   0x00012fc8      0x128 ./build/sensor_cmd.o
 .debug_frame   0x000130f0      0x118 ./build/sensor.o
 .debug_frame   0x00013208      0x254 ./build/serial_v2.o
 .debug_frame   0x0001345c      0x178 ./build/spi_core.o
 .debug_frame   0x000135d4      0x23c ./build/spi_msd.o
 .debug_frame   0x00013810       0xd8 ./build/spi_dev.o
 .debug_frame   0x000138e8      0x16c ./build/winusb.o
 .debug_frame   0x00013a54      0x144 ./build/audio_mic.o
 .debug_frame   0x00013b98      0x144 ./build/audio_speaker.o
 .debug_frame   0x00013cdc      0x85c ./build/usbdevice_core.o
 .debug_frame   0x00014538       0x50 ./build/usbdevice.o
 .debug_frame   0x00014588      0x1fc ./build/cmd.o
 .debug_frame   0x00014784      0x124 ./build/msh.o
 .debug_frame   0x000148a8      0x1b0 ./build/shell.o
 .debug_frame   0x00014a58       0xec ./build/cpuport.o
 .debug_frame   0x00014b44       0xe8 ./build/components.o
 .debug_frame   0x00014c2c      0x1a4 ./build/timer.o
 .debug_frame   0x00014dd0      0x258 ./build/thread.o
 .debug_frame   0x00015028      0x170 ./build/object.o
 .debug_frame   0x00015198      0x184 ./build/device.o
 .debug_frame   0x0001531c      0x538 ./build/ipc.o
 .debug_frame   0x00015854      0x438 ./build/kservice.o
 .debug_frame   0x00015c8c       0x88 ./build/clock.o
 .debug_frame   0x00015d14      0x130 ./build/scheduler.o
 .debug_frame   0x00015e44       0x78 ./build/irq.o
 .debug_frame   0x00015ebc       0xfc ./build/mempool.o
 .debug_frame   0x00015fb8       0xd0 ./build/idle.o
 .debug_frame   0x00016088       0xc8 ./build/mem.o
 .debug_frame   0x00016150       0x2c d:/software/work/gcc-arm-none-eabi-10.3-2021.07/bin/../lib/gcc/arm-none-eabi/10.3.1/thumb/v7e-m+dp/hard\libgcc.a(_aeabi_uldivmod.o)
 .debug_frame   0x0001617c       0x34 d:/software/work/gcc-arm-none-eabi-10.3-2021.07/bin/../lib/gcc/arm-none-eabi/10.3.1/thumb/v7e-m+dp/hard\libgcc.a(_udivmoddi4.o)
 .debug_frame   0x000161b0       0x30 d:/software/work/gcc-arm-none-eabi-10.3-2021.07/bin/../lib/gcc/arm-none-eabi/10.3.1/../../../../arm-none-eabi/lib/thumb/v7e-m+dp/hard\libc.a(lib_a-atoi.o)
 .debug_frame   0x000161e0       0x28 d:/software/work/gcc-arm-none-eabi-10.3-2021.07/bin/../lib/gcc/arm-none-eabi/10.3.1/../../../../arm-none-eabi/lib/thumb/v7e-m+dp/hard\libc.a(lib_a-exit.o)
 .debug_frame   0x00016208       0x2c d:/software/work/gcc-arm-none-eabi-10.3-2021.07/bin/../lib/gcc/arm-none-eabi/10.3.1/../../../../arm-none-eabi/lib/thumb/v7e-m+dp/hard\libc.a(lib_a-init.o)
 .debug_frame   0x00016234       0x2c d:/software/work/gcc-arm-none-eabi-10.3-2021.07/bin/../lib/gcc/arm-none-eabi/10.3.1/../../../../arm-none-eabi/lib/thumb/v7e-m+dp/hard\libc.a(lib_a-memcmp.o)
 .debug_frame   0x00016260       0x2c d:/software/work/gcc-arm-none-eabi-10.3-2021.07/bin/../lib/gcc/arm-none-eabi/10.3.1/../../../../arm-none-eabi/lib/thumb/v7e-m+dp/hard\libc.a(lib_a-memset.o)
 .debug_frame   0x0001628c       0x28 d:/software/work/gcc-arm-none-eabi-10.3-2021.07/bin/../lib/gcc/arm-none-eabi/10.3.1/../../../../arm-none-eabi/lib/thumb/v7e-m+dp/hard\libc.a(lib_a-strcat.o)
 .debug_frame   0x000162b4       0x68 d:/software/work/gcc-arm-none-eabi-10.3-2021.07/bin/../lib/gcc/arm-none-eabi/10.3.1/../../../../arm-none-eabi/lib/thumb/v7e-m+dp/hard\libc.a(lib_a-strcmp.o)
 .debug_frame   0x0001631c       0x20 d:/software/work/gcc-arm-none-eabi-10.3-2021.07/bin/../lib/gcc/arm-none-eabi/10.3.1/../../../../arm-none-eabi/lib/thumb/v7e-m+dp/hard\libc.a(lib_a-strcpy.o)
 .debug_frame   0x0001633c       0x38 d:/software/work/gcc-arm-none-eabi-10.3-2021.07/bin/../lib/gcc/arm-none-eabi/10.3.1/../../../../arm-none-eabi/lib/thumb/v7e-m+dp/hard\libc.a(lib_a-strncmp.o)
 .debug_frame   0x00016374       0x2c d:/software/work/gcc-arm-none-eabi-10.3-2021.07/bin/../lib/gcc/arm-none-eabi/10.3.1/../../../../arm-none-eabi/lib/thumb/v7e-m+dp/hard\libc.a(lib_a-strncpy.o)
 .debug_frame   0x000163a0       0x34 d:/software/work/gcc-arm-none-eabi-10.3-2021.07/bin/../lib/gcc/arm-none-eabi/10.3.1/../../../../arm-none-eabi/lib/thumb/v7e-m+dp/hard\libc.a(lib_a-strrchr.o)
 .debug_frame   0x000163d4       0x80 d:/software/work/gcc-arm-none-eabi-10.3-2021.07/bin/../lib/gcc/arm-none-eabi/10.3.1/../../../../arm-none-eabi/lib/thumb/v7e-m+dp/hard\libc.a(lib_a-strtol.o)
 .debug_frame   0x00016454       0x68 d:/software/work/gcc-arm-none-eabi-10.3-2021.07/bin/../lib/gcc/arm-none-eabi/10.3.1/../../../../arm-none-eabi/lib/thumb/v7e-m+dp/hard\libc.a(lib_a-__call_atexit.o)
 .debug_frame   0x000164bc       0x20 d:/software/work/gcc-arm-none-eabi-10.3-2021.07/bin/../lib/gcc/arm-none-eabi/10.3.1/../../../../arm-none-eabi/lib/thumb/v7e-m+dp/hard\libc.a(lib_a-atexit.o)
 .debug_frame   0x000164dc       0x20 d:/software/work/gcc-arm-none-eabi-10.3-2021.07/bin/../lib/gcc/arm-none-eabi/10.3.1/../../../../arm-none-eabi/lib/thumb/v7e-m+dp/hard\libc.a(lib_a-errno.o)
 .debug_frame   0x000164fc       0x34 d:/software/work/gcc-arm-none-eabi-10.3-2021.07/bin/../lib/gcc/arm-none-eabi/10.3.1/../../../../arm-none-eabi/lib/thumb/v7e-m+dp/hard\libc.a(lib_a-fini.o)
 .debug_frame   0x00016530       0xb0 d:/software/work/gcc-arm-none-eabi-10.3-2021.07/bin/../lib/gcc/arm-none-eabi/10.3.1/../../../../arm-none-eabi/lib/thumb/v7e-m+dp/hard\libc.a(lib_a-lock.o)
 .debug_frame   0x000165e0       0x34 d:/software/work/gcc-arm-none-eabi-10.3-2021.07/bin/../lib/gcc/arm-none-eabi/10.3.1/../../../../arm-none-eabi/lib/thumb/v7e-m+dp/hard\libc.a(lib_a-strchr.o)
 .debug_frame   0x00016614       0x34 d:/software/work/gcc-arm-none-eabi-10.3-2021.07/bin/../lib/gcc/arm-none-eabi/10.3.1/../../../../arm-none-eabi/lib/thumb/v7e-m+dp/hard\libc.a(lib_a-__atexit.o)
