
STM32H7x_2048.FLM:     file format elf32-littlearm

Contents of section PrgCode:
 0000 bff34f8f 704710b5 03464ff4 8070ed4c  ..O.pG...FO..p.L
 0010 2060ed48 006840f0 0700eb4c 2060eb48   `.H.h@....L `.H
 0020 606100bf e8480069 00f00400 0028f9d1  `a...H.i.....(..
 0030 e748e54c 6060e748 6060e448 e64c2060  .H.L``.H``.H.L `
 0040 00bfe548 001f0068 00f00400 0028f8d1  ...H...h.....(..
 0050 df48e14c 103c2060 de48db4c c4f80401  .H.L.< `.H.L....
 0060 002010bd 0146d848 c06840f0 0100d64a  . ...F.H.h@....J
 0070 d060d948 08380068 40f00100 c2f80c01  .`.H.8.h@.......
 0080 00207047 d148d049 486100bf ce480069  . pG.H.IHa...H.i
 0090 00f00400 0028f9d1 cc48cf49 086000bf  .....(...H.I.`..
 00a0 cd48001f 006800f0 04000028 f8d100bf  .H...h.....(....
 00b0 c5480069 00f00400 0028f9d1 c248c068  .H.i.....(...H.h
 00c0 20f03000 c049c860 0846c068 40f00800   .0..I.`.F.h@...
 00d0 c8600846 c06840f0 8000c860 00bfba48  .`.F.h@....`...H
 00e0 006900f0 04000028 f9d1b748 c06820f0  .i.....(...H.h .
 00f0 0800b549 c86000bf b748001f 006800f0  ...I.`...H...h..
 0100 04000028 f8d1b448 08380068 20f03000  ...(...H.8.h .0.
 0110 ad49c1f8 0c010846 d0f80c01 40f00800  .I.....F....@...
 0120 c1f80c01 0846d0f8 0c0140f0 8000c1f8  .....F....@.....
 0130 0c0100bf a848001f 006800f0 04000028  .....H...h.....(
 0140 f8d1a548 08380068 20f00800 9e49c1f8  ...H.8.h ....I..
 0150 0c010020 704710b5 0146c1f3 4342b1f1  ... pG...F..CB..
 0160 006f37d3 b1f1016f 34d29748 4069974b  .o7....o4..H@i.K
 0170 1843954b 586100bf 93480069 00f00400  .C.KXa...H.i....
 0180 0028f9d1 9048c068 47f63073 98438e4b  .(...H.hG.0s.C.K
 0190 d8601846 c0680423 43ea0223 18438a4b  .`.F.h.#C..#.C.K
 01a0 d8601846 c06840f0 8000d860 00bf8648  .`.F.h@....`...H
 01b0 006900f0 04000028 f9d18348 c06820f0  .i.....(...H.h .
 01c0 0400814b d8601846 006900f0 0100e8b3  ...K.`.F.i......
 01d0 012010bd 80480068 7c4b1843 7a4bc3f8  . ...H.h|K.CzK..
 01e0 140100bf 7c48001f 006800f0 04000028  ....|H...h.....(
 01f0 f8d17948 08380068 47f63073 9843724b  ..yH.8.hG.0s.CrK
 0200 c3f80c01 74480838 0068a2f1 08030424  ....tH.8.h.....$
 0210 44ea0323 18436c4b c3f80c01 1846d0f8  D..#.ClK.....F..
 0220 0c0140f0 8000c3f8 0c0100bf 6a48001f  ..@.........jH..
 0230 006800f0 04000028 f8d16748 08380068  .h.....(..gH.8.h
 0240 20f00400 604bc3f8 0c0100e0 07e06248   ...`K........bH
 0250 001f0068 00f00100 08b10120 b9e70020  ...h....... ... 
 0260 b7e7f0b5 03460c46 16461946 35460022  .....F.F.F.F5F."
 0270 b3f1006f 0dd3b3f1 016f0ad2 00bf5248  ...o.....o....RH
 0280 006900f0 04000028 f9d15048 4e4f7861  .i.....(..PHNOxa
 0290 0ae000bf 5048001f 006800f0 04000028  ....PH...h.....(
 02a0 f8d14a48 4c4f3860 87e0b3f1 006f0cd3  ..JHLO8`.....o..
 02b0 b3f1016f 09d24448 c06847f6 3077b843  ...o..DH.hG.0w.C
 02c0 414ff860 0220f860 0ce04348 08380068  AO.`. .`..CH.8.h
 02d0 47f63077 b8433c4f c7f80c01 02203e4f  G.0w.C<O..... >O
 02e0 083f3860 202c0cd3 002206e0 2f686868  .?8` ,..."../hhh
 02f0 0f604860 08350831 521c042a f6db203c  .`H`.5.1R..*.. <
 0300 13e00022 04e015f8 010b01f8 010b521c  ..."..........R.
 0310 a242f8d3 002203e0 ff2001f8 010b521c  .B..."... ....R.
 0320 c4f12000 9042f7d8 0024fff7 69feb3f1  .. ..B...$..i...
 0330 006f0ad3 b3f1016f 07d200bf 22480069  .o.....o...."H.i
 0340 00f00400 0028f9d1 07e000bf 2248001f  .....(......"H..
 0350 006800f0 04000028 f8d11b48 00690020  .h.....(...H.i. 
 0360 b0b1b3f1 006f09d3 b3f1016f 06d21648  .....o.....o...H
 0370 c06820f0 0200144f f86007e0 16480838  .h ....O.`...H.8
 0380 006820f0 0200104f c7f80c01 0120f0bd  .h ....O..... ..
 0390 b3f1006f 09d3b3f1 016f06d2 0a48c068  ...o.....o...H.h
 03a0 20f00200 084ff860 07e00b48 08380068   ....O.`...H.8.h
 03b0 20f00200 044fc7f8 0c01002c 7ff475af   ....O.....,..u.
 03c0 0020e4e7 94450258 00200052 0000ef0f  . ...E.X. .R....
 03d0 23016745 ab89efcd 14210052           #.gE.....!.R    
Contents of section PrgData:
 03dc 00000000                             ....            
Contents of section DevDscr:
 03e0 01015354 4d333248 37785f32 30343800  ..STM32H7x_2048.
 03f0 00000000 00000000 00000000 00000000  ................
 0400 00000000 00000000 00000000 00000000  ................
 0410 00000000 00000000 00000000 00000000  ................
 0420 00000000 00000000 00000000 00000000  ................
 0430 00000000 00000000 00000000 00000000  ................
 0440 00000000 00000000 00000000 00000000  ................
 0450 00000000 00000000 00000000 00000000  ................
 0460 00000100 00000008 00002000 00040000  .......... .....
 0470 00000000 ff000000 64000000 70170000  ........d...p...
 0480 00000200 00000000 ffffffff ffffffff  ................
 0490 00000000 00000000 00000000 00000000  ................
 04a0 00000000 00000000 00000000 00000000  ................
 04b0 00000000 00000000 00000000 00000000  ................
 04c0 00000000 00000000 00000000 00000000  ................
 04d0 00000000 00000000 00000000 00000000  ................
 04e0 00000000 00000000 00000000 00000000  ................
 04f0 00000000 00000000 00000000 00000000  ................
 0500 00000000 00000000 00000000 00000000  ................
 0510 00000000 00000000 00000000 00000000  ................
 0520 00000000 00000000 00000000 00000000  ................
 0530 00000000 00000000 00000000 00000000  ................
 0540 00000000 00000000 00000000 00000000  ................
 0550 00000000 00000000 00000000 00000000  ................
 0560 00000000 00000000 00000000 00000000  ................
 0570 00000000 00000000 00000000 00000000  ................
 0580 00000000 00000000 00000000 00000000  ................
 0590 00000000 00000000 00000000 00000000  ................
 05a0 00000000 00000000 00000000 00000000  ................
 05b0 00000000 00000000 00000000 00000000  ................
 05c0 00000000 00000000 00000000 00000000  ................
 05d0 00000000 00000000 00000000 00000000  ................
 05e0 00000000 00000000 00000000 00000000  ................
 05f0 00000000 00000000 00000000 00000000  ................
 0600 00000000 00000000 00000000 00000000  ................
 0610 00000000 00000000 00000000 00000000  ................
 0620 00000000 00000000 00000000 00000000  ................
 0630 00000000 00000000 00000000 00000000  ................
 0640 00000000 00000000 00000000 00000000  ................
 0650 00000000 00000000 00000000 00000000  ................
 0660 00000000 00000000 00000000 00000000  ................
 0670 00000000 00000000 00000000 00000000  ................
 0680 00000000 00000000 00000000 00000000  ................
 0690 00000000 00000000 00000000 00000000  ................
 06a0 00000000 00000000 00000000 00000000  ................
 06b0 00000000 00000000 00000000 00000000  ................
 06c0 00000000 00000000 00000000 00000000  ................
 06d0 00000000 00000000 00000000 00000000  ................
 06e0 00000000 00000000 00000000 00000000  ................
 06f0 00000000 00000000 00000000 00000000  ................
 0700 00000000 00000000 00000000 00000000  ................
 0710 00000000 00000000 00000000 00000000  ................
 0720 00000000 00000000 00000000 00000000  ................
 0730 00000000 00000000 00000000 00000000  ................
 0740 00000000 00000000 00000000 00000000  ................
 0750 00000000 00000000 00000000 00000000  ................
 0760 00000000 00000000 00000000 00000000  ................
 0770 00000000 00000000 00000000 00000000  ................
 0780 00000000 00000000 00000000 00000000  ................
 0790 00000000 00000000 00000000 00000000  ................
 07a0 00000000 00000000 00000000 00000000  ................
 07b0 00000000 00000000 00000000 00000000  ................
 07c0 00000000 00000000 00000000 00000000  ................
 07d0 00000000 00000000 00000000 00000000  ................
 07e0 00000000 00000000 00000000 00000000  ................
 07f0 00000000 00000000 00000000 00000000  ................
 0800 00000000 00000000 00000000 00000000  ................
 0810 00000000 00000000 00000000 00000000  ................
 0820 00000000 00000000 00000000 00000000  ................
 0830 00000000 00000000 00000000 00000000  ................
 0840 00000000 00000000 00000000 00000000  ................
 0850 00000000 00000000 00000000 00000000  ................
 0860 00000000 00000000 00000000 00000000  ................
 0870 00000000 00000000 00000000 00000000  ................
 0880 00000000 00000000 00000000 00000000  ................
 0890 00000000 00000000 00000000 00000000  ................
 08a0 00000000 00000000 00000000 00000000  ................
 08b0 00000000 00000000 00000000 00000000  ................
 08c0 00000000 00000000 00000000 00000000  ................
 08d0 00000000 00000000 00000000 00000000  ................
 08e0 00000000 00000000 00000000 00000000  ................
 08f0 00000000 00000000 00000000 00000000  ................
 0900 00000000 00000000 00000000 00000000  ................
 0910 00000000 00000000 00000000 00000000  ................
 0920 00000000 00000000 00000000 00000000  ................
 0930 00000000 00000000 00000000 00000000  ................
 0940 00000000 00000000 00000000 00000000  ................
 0950 00000000 00000000 00000000 00000000  ................
 0960 00000000 00000000 00000000 00000000  ................
 0970 00000000 00000000 00000000 00000000  ................
 0980 00000000 00000000 00000000 00000000  ................
 0990 00000000 00000000 00000000 00000000  ................
 09a0 00000000 00000000 00000000 00000000  ................
 09b0 00000000 00000000 00000000 00000000  ................
 09c0 00000000 00000000 00000000 00000000  ................
 09d0 00000000 00000000 00000000 00000000  ................
 09e0 00000000 00000000 00000000 00000000  ................
 09f0 00000000 00000000 00000000 00000000  ................
 0a00 00000000 00000000 00000000 00000000  ................
 0a10 00000000 00000000 00000000 00000000  ................
 0a20 00000000 00000000 00000000 00000000  ................
 0a30 00000000 00000000 00000000 00000000  ................
 0a40 00000000 00000000 00000000 00000000  ................
 0a50 00000000 00000000 00000000 00000000  ................
 0a60 00000000 00000000 00000000 00000000  ................
 0a70 00000000 00000000 00000000 00000000  ................
 0a80 00000000 00000000 00000000 00000000  ................
 0a90 00000000 00000000 00000000 00000000  ................
 0aa0 00000000 00000000 00000000 00000000  ................
 0ab0 00000000 00000000 00000000 00000000  ................
 0ac0 00000000 00000000 00000000 00000000  ................
 0ad0 00000000 00000000 00000000 00000000  ................
 0ae0 00000000 00000000 00000000 00000000  ................
 0af0 00000000 00000000 00000000 00000000  ................
 0b00 00000000 00000000 00000000 00000000  ................
 0b10 00000000 00000000 00000000 00000000  ................
 0b20 00000000 00000000 00000000 00000000  ................
 0b30 00000000 00000000 00000000 00000000  ................
 0b40 00000000 00000000 00000000 00000000  ................
 0b50 00000000 00000000 00000000 00000000  ................
 0b60 00000000 00000000 00000000 00000000  ................
 0b70 00000000 00000000 00000000 00000000  ................
 0b80 00000000 00000000 00000000 00000000  ................
 0b90 00000000 00000000 00000000 00000000  ................
 0ba0 00000000 00000000 00000000 00000000  ................
 0bb0 00000000 00000000 00000000 00000000  ................
 0bc0 00000000 00000000 00000000 00000000  ................
 0bd0 00000000 00000000 00000000 00000000  ................
 0be0 00000000 00000000 00000000 00000000  ................
 0bf0 00000000 00000000 00000000 00000000  ................
 0c00 00000000 00000000 00000000 00000000  ................
 0c10 00000000 00000000 00000000 00000000  ................
 0c20 00000000 00000000 00000000 00000000  ................
 0c30 00000000 00000000 00000000 00000000  ................
 0c40 00000000 00000000 00000000 00000000  ................
 0c50 00000000 00000000 00000000 00000000  ................
 0c60 00000000 00000000 00000000 00000000  ................
 0c70 00000000 00000000 00000000 00000000  ................
 0c80 00000000 00000000 00000000 00000000  ................
 0c90 00000000 00000000 00000000 00000000  ................
 0ca0 00000000 00000000 00000000 00000000  ................
 0cb0 00000000 00000000 00000000 00000000  ................
 0cc0 00000000 00000000 00000000 00000000  ................
 0cd0 00000000 00000000 00000000 00000000  ................
 0ce0 00000000 00000000 00000000 00000000  ................
 0cf0 00000000 00000000 00000000 00000000  ................
 0d00 00000000 00000000 00000000 00000000  ................
 0d10 00000000 00000000 00000000 00000000  ................
 0d20 00000000 00000000 00000000 00000000  ................
 0d30 00000000 00000000 00000000 00000000  ................
 0d40 00000000 00000000 00000000 00000000  ................
 0d50 00000000 00000000 00000000 00000000  ................
 0d60 00000000 00000000 00000000 00000000  ................
 0d70 00000000 00000000 00000000 00000000  ................
 0d80 00000000 00000000 00000000 00000000  ................
 0d90 00000000 00000000 00000000 00000000  ................
 0da0 00000000 00000000 00000000 00000000  ................
 0db0 00000000 00000000 00000000 00000000  ................
 0dc0 00000000 00000000 00000000 00000000  ................
 0dd0 00000000 00000000 00000000 00000000  ................
 0de0 00000000 00000000 00000000 00000000  ................
 0df0 00000000 00000000 00000000 00000000  ................
 0e00 00000000 00000000 00000000 00000000  ................
 0e10 00000000 00000000 00000000 00000000  ................
 0e20 00000000 00000000 00000000 00000000  ................
 0e30 00000000 00000000 00000000 00000000  ................
 0e40 00000000 00000000 00000000 00000000  ................
 0e50 00000000 00000000 00000000 00000000  ................
 0e60 00000000 00000000 00000000 00000000  ................
 0e70 00000000 00000000 00000000 00000000  ................
 0e80 00000000 00000000 00000000 00000000  ................
 0e90 00000000 00000000 00000000 00000000  ................
 0ea0 00000000 00000000 00000000 00000000  ................
 0eb0 00000000 00000000 00000000 00000000  ................
 0ec0 00000000 00000000 00000000 00000000  ................
 0ed0 00000000 00000000 00000000 00000000  ................
 0ee0 00000000 00000000 00000000 00000000  ................
 0ef0 00000000 00000000 00000000 00000000  ................
 0f00 00000000 00000000 00000000 00000000  ................
 0f10 00000000 00000000 00000000 00000000  ................
 0f20 00000000 00000000 00000000 00000000  ................
 0f30 00000000 00000000 00000000 00000000  ................
 0f40 00000000 00000000 00000000 00000000  ................
 0f50 00000000 00000000 00000000 00000000  ................
 0f60 00000000 00000000 00000000 00000000  ................
 0f70 00000000 00000000 00000000 00000000  ................
 0f80 00000000 00000000 00000000 00000000  ................
 0f90 00000000 00000000 00000000 00000000  ................
 0fa0 00000000 00000000 00000000 00000000  ................
 0fb0 00000000 00000000 00000000 00000000  ................
 0fc0 00000000 00000000 00000000 00000000  ................
 0fd0 00000000 00000000 00000000 00000000  ................
 0fe0 00000000 00000000 00000000 00000000  ................
 0ff0 00000000 00000000 00000000 00000000  ................
 1000 00000000 00000000 00000000 00000000  ................
 1010 00000000 00000000 00000000 00000000  ................
 1020 00000000 00000000 00000000 00000000  ................
 1030 00000000 00000000 00000000 00000000  ................
 1040 00000000 00000000 00000000 00000000  ................
 1050 00000000 00000000 00000000 00000000  ................
 1060 00000000 00000000 00000000 00000000  ................
 1070 00000000 00000000 00000000 00000000  ................
 1080 00000000 00000000 00000000 00000000  ................
 1090 00000000 00000000 00000000 00000000  ................
 10a0 00000000 00000000 00000000 00000000  ................
 10b0 00000000 00000000 00000000 00000000  ................
 10c0 00000000 00000000 00000000 00000000  ................
 10d0 00000000 00000000 00000000 00000000  ................
 10e0 00000000 00000000 00000000 00000000  ................
 10f0 00000000 00000000 00000000 00000000  ................
 1100 00000000 00000000 00000000 00000000  ................
 1110 00000000 00000000 00000000 00000000  ................
 1120 00000000 00000000 00000000 00000000  ................
 1130 00000000 00000000 00000000 00000000  ................
 1140 00000000 00000000 00000000 00000000  ................
 1150 00000000 00000000 00000000 00000000  ................
 1160 00000000 00000000 00000000 00000000  ................
 1170 00000000 00000000 00000000 00000000  ................
 1180 00000000 00000000 00000000 00000000  ................
 1190 00000000 00000000 00000000 00000000  ................
 11a0 00000000 00000000 00000000 00000000  ................
 11b0 00000000 00000000 00000000 00000000  ................
 11c0 00000000 00000000 00000000 00000000  ................
 11d0 00000000 00000000 00000000 00000000  ................
 11e0 00000000 00000000 00000000 00000000  ................
 11f0 00000000 00000000 00000000 00000000  ................
 1200 00000000 00000000 00000000 00000000  ................
 1210 00000000 00000000 00000000 00000000  ................
 1220 00000000 00000000 00000000 00000000  ................
 1230 00000000 00000000 00000000 00000000  ................
 1240 00000000 00000000 00000000 00000000  ................
 1250 00000000 00000000 00000000 00000000  ................
 1260 00000000 00000000 00000000 00000000  ................
 1270 00000000 00000000 00000000 00000000  ................
 1280 00000000 00000000 00000000 00000000  ................
 1290 00000000 00000000 00000000 00000000  ................
 12a0 00000000 00000000 00000000 00000000  ................
 12b0 00000000 00000000 00000000 00000000  ................
 12c0 00000000 00000000 00000000 00000000  ................
 12d0 00000000 00000000 00000000 00000000  ................
 12e0 00000000 00000000 00000000 00000000  ................
 12f0 00000000 00000000 00000000 00000000  ................
 1300 00000000 00000000 00000000 00000000  ................
 1310 00000000 00000000 00000000 00000000  ................
 1320 00000000 00000000 00000000 00000000  ................
 1330 00000000 00000000 00000000 00000000  ................
 1340 00000000 00000000 00000000 00000000  ................
 1350 00000000 00000000 00000000 00000000  ................
 1360 00000000 00000000 00000000 00000000  ................
 1370 00000000 00000000 00000000 00000000  ................
 1380 00000000 00000000 00000000 00000000  ................
 1390 00000000 00000000 00000000 00000000  ................
 13a0 00000000 00000000 00000000 00000000  ................
 13b0 00000000 00000000 00000000 00000000  ................
 13c0 00000000 00000000 00000000 00000000  ................
 13d0 00000000 00000000 00000000 00000000  ................
 13e0 00000000 00000000 00000000 00000000  ................
 13f0 00000000 00000000 00000000 00000000  ................
 1400 00000000 00000000 00000000 00000000  ................
 1410 00000000 00000000 00000000 00000000  ................
 1420 00000000 00000000 00000000 00000000  ................
 1430 00000000 00000000 00000000 00000000  ................
 1440 00000000 00000000 00000000 00000000  ................
 1450 00000000 00000000 00000000 00000000  ................
 1460 00000000 00000000 00000000 00000000  ................
 1470 00000000 00000000 00000000 00000000  ................
Contents of section .debug_abbrev:
 0000 0121002f 0f000002 21000000 03010101  .!./....!.......
 0010 15491600 00042400 0b0b3e0b 03080000  .I....$...>.....
 0020 05110103 08250813 051b0811 01120110  .....%..........
 0030 06000006 11010308 25081305 1b081101  ........%.......
 0040 12010000 07110103 08250813 051b0810  .........%......
 0050 06000008 11010308 25081305 1b080000  ........%.......
 0060 09110103 08250813 051b0843 06110112  .....%.....C....
 0070 01100600 000a1101 03082508 13051b08  ..........%.....
 0080 43061006 00000b11 01030825 08130511  C..........%....
 0090 01120110 0600000c 11010308 25081305  ............%...
 00a0 11011201 00000d11 01030825 08130510  ...........%....
 00b0 0600000e 11010308 25081305 00000f11  ........%.......
 00c0 01030825 08130543 06110112 01100600  ...%...C........
 00d0 00101101 03082508 13054306 10060000  ......%...C.....
 00e0 11260049 16000012 04010115 03080b0b  .&.I............
 00f0 00001304 0101150b 0b000014 28000308  ............(...
 0100 1c160000 15280003 081c0d00 00160b01  .....(..........
 0110 01151101 12010000 170b0011 01120100  ................
 0120 00180b01 01150000 190b0000 001a0b01  ................
 0130 01151101 12013110 00001b0b 00110112  ......1.........
 0140 01311000 001c0b01 01153110 00001d0b  .1........1.....
 0150 00311000 001e0d00 03084916 38090000  .1........I.8...
 0160 1f0d0003 08491600 00200d00 03084916  .....I... ....I.
 0170 3809340c 0000210d 00030849 1638090b  8.4...!....I.8..
 0180 0b0d0b0c 0b000022 0f004916 00002337  ......."..I...#7
 0190 00491600 00240500 49160308 00002505  .I...$..I.....%.
 01a0 00491600 00260500 49160209 00002705  .I...&..I.....'.
 01b0 00491602 06000028 10004916 00002913  .I.....(..I...).
 01c0 01011503 080b0f00 002a1301 01150b0f  .........*......
 01d0 00002b13 01011503 0800002c 13010000  ..+........,....
 01e0 2d130003 0800002e 13000000 2f130101  -.........../...
 01f0 15340c03 080b0f00 00301301 0115340c  .4.......0....4.
 0200 0b0f0000 31130101 15340c03 08000032  ....1....4.....2
 0210 1301340c 00003313 00340c03 08000034  ..4...3..4.....4
 0220 1300340c 0000352e 0101153a 0f3b0f39  ..4...5....:.;.9
 0230 0f03083f 0c491611 01120100 00362e01  ...?.I.......6..
 0240 01153a0f 3b0f390f 03083f0c 11011201  ..:.;.9...?.....
 0250 0000372e 0101153a 0f3b0f39 0f471611  ..7....:.;.9.G..
 0260 01120100 00382e01 01153a0f 3b0f390f  .....8....:.;.9.
 0270 03083f0c 4916200f 0000392e 0101153a  ..?.I. ...9....:
 0280 0f3b0f39 0f03083f 0c200f00 003a2e01  .;.9...?. ...:..
 0290 01153a0f 3b0f390f 4716200f 00003b2e  ..:.;.9.G. ...;.
 02a0 0101153a 0f3b0f39 0f03083f 0c491600  ...:.;.9...?.I..
 02b0 003c2e01 01153a0f 3b0f390f 03083f0c  .<....:.;.9...?.
 02c0 00003d2e 0101153a 0f3b0f39 0f471600  ..=....:.;.9.G..
 02d0 003e2e01 01153a0f 3b0f390f 03083f0c  .>....:.;.9...?.
 02e0 49161101 12014006 00003f2e 0101153a  I.....@...?....:
 02f0 0f3b0f39 0f03083f 0c110112 01400600  .;.9...?.....@..
 0300 00402e01 01153a0f 3b0f390f 47161101  .@....:.;.9.G...
 0310 12014006 0000412e 0101153a 0f3b0f39  ..@...A....:.;.9
 0320 0f03083f 0c491611 01120140 0a000042  ...?.I.....@...B
 0330 2e010115 3a0f3b0f 390f0308 3f0c1101  ....:.;.9...?...
 0340 1201400a 0000432e 0101153a 0f3b0f39  ..@...C....:.;.9
 0350 0f471611 01120140 0a000044 1d010115  .G.....@...D....
 0360 31101101 12010000 451d0101 15311000  1.......E....1..
 0370 00461d01 01153110 11011201 580f590f  .F....1.....X.Y.
 0380 570f0000 471d0101 15311058 0f590f57  W...G....1.X.Y.W
 0390 0f000048 2e010115 31101101 12010000  ...H....1.......
 03a0 492e0101 15311011 01120140 0600004a  I....1.....@...J
 03b0 2e010115 31101101 1201400a 00004b2e  ....1.....@...K.
 03c0 01011531 1000004c 2e010115 03083c0c  ...1...L......<.
 03d0 340c4916 3f0c0000 4d2e0101 1503083c  4.I.?...M......<
 03e0 0c340c3f 0c00004e 15010115 49160000  .4.?...N....I...
 03f0 4f150101 15000050 16000308 49163a0f  O......P....I.:.
 0400 3b0f390f 00005116 00030849 16340c00  ;.9...Q....I.4..
 0410 00521701 01150308 0b0f0000 53170101  .R..........S...
 0420 150b0f00 00541701 01150308 00005517  .....T........U.
 0430 00030800 00561800 00005718 00311000  .....V....W..1..
 0440 00583400 03084916 02092c0f 00005934  .X4...I...,...Y4
 0450 00030849 16020900 005a3400 03084916  ...I.....Z4...I.
 0460 02060000 5b340003 0849162c 0f00005c  ....[4...I.,...\
 0470 34000308 49160000 5d340003 08491602  4...I...]4...I..
 0480 09340c00 005e3400 03084916 02092c0f  .4...^4...I...,.
 0490 340c0000 5f340003 08491602 06340c00  4..._4...I...4..
 04a0 00603400 03084916 2c0f340c 00006134  .`4...I.,.4...a4
 04b0 00030849 16340c00 00623400 31100209  ...I.4...b4.1...
 04c0 2c0f0000 63340031 10020600 00643400  ,...c4.1.....d4.
 04d0 31102c0f 00006534 00311000 00660500  1.,...e4.1...f..
 04e0 31100000 67050031 101c1600 00680500  1...g..1.....h..
 04f0 03084916 02090000 69050003 08491602  ..I.....i....I..
 0500 0600006a 05000308 49160000 6b050003  ...j....I...k...
 0510 08491602 09340c00 006c0500 03084916  .I...4...l....I.
 0520 02092c0f 340c0000 6d050003 08491602  ..,.4...m....I..
 0530 06340c00 006e0500 31100209 00006f05  .4...n..1.....o.
 0540 00311002 06000070 34000308 49160209  .1.....p4...I...
 0550 3f0c0000 71340003 0849163f 0c3c0c00  ?...q4...I.?.<..
 0560 00723400 03084916 1c162c0f 00007334  .r4...I...,...s4
 0570 00030849 161c1600 00743500 49160000  ...I.....t5.I...
 0580 753b0003 08000076 3d001810 00007711  u;.....v=.....w.
 0590 01250813 05000078 3c012508 13050000  .%.....x<.%.....
 05a0 00000000                             ....            
Contents of section .debug_frame:
 0000 30000000 ffffffff 0361726d 63632b00  0........armcc+.
 0010 027c0e12 0d000800 08010802 08030804  .|..............
 0020 08050806 08070808 0809080a 080b070c  ................
 0030 080e0000 30000000 ffffffff 0361726d  ....0........arm
 0040 63632b00 027c0e12 0d000700 07010702  cc+..|..........
 0050 07030804 08050806 08070808 0809080a  ................
 0060 080b070c 080e0000 30000000 ffffffff  ........0.......
 0070 0361726d 63632b00 027c0e12 0d000700  .armcc+..|......
 0080 07010702 08030804 08050806 08070808  ................
 0090 0809080a 080b070c 080e0000 30000000  ............0...
 00a0 ffffffff 0361726d 63632b00 027c0e12  .....armcc+..|..
 00b0 0d000700 07010802 08030804 08050806  ................
 00c0 08070808 0809080a 080b070c 080e0000  ................
 00d0 0c000000 00000000 00000000 06000000  ................
 00e0 14000000 34000000 06000000 5e000000  ....4.......^...
 00f0 41137e84 028e0100 0c000000 68000000  A.~.........h...
 0100 64000000 20000000 0c000000 9c000000  d... ...........
 0110 84000000 d2000000 14000000 34000000  ............4...
 0120 56010000 0c010000 41137e84 028e0100  V.......A.~.....
 0130 1c000000 34000000 62020000 62010000  ....4...b...b...
 0140 41137b84 05850486 0387028e 01000000  A.{.............
Contents of section .debug_info:
 0000 08020000 03000000 0000040a 2e2e5c46  ..............\F
 0010 6c617368 4f532e48 00436f6d 706f6e65  lashOS.H.Compone
 0020 6e743a20 41524d20 436f6d70 696c6572  nt: ARM Compiler
 0030 20352e30 36207570 64617465 20362028   5.06 update 6 (
 0040 6275696c 64203735 30292054 6f6f6c3a  build 750) Tool:
 0050 2041726d 4343205b 34643336 33375d00   ArmCC [4d3637].
 0060 0100433a 5c557365 72735c67 61727261  ..C:\Users\garra
 0070 62615c44 6f776e6c 6f616473 5c4b6569  ba\Downloads\Kei
 0080 6c2e5354 4d333248 3778785f 4446502e  l.STM32H7xx_DFP.
 0090 322e322e 32202831 295c4b65 696c2e53  2.2.2 (1)\Keil.S
 00a0 544d3332 48377878 5f444650 2e322e32  TM32H7xx_DFP.2.2
 00b0 2e325c53 544d3332 48377878 5f637574  .2\STM32H7xx_cut
 00c0 325f3230 3438000c 0b0000e4 00000004  2_2048..........
 00d0 0407756e 7369676e 6564206c 6f6e6700  ..unsigned long.
 00e0 04020775 6e736967 6e656420 73686f72  ...unsigned shor
 00f0 74000401 08636861 72000401 08756e73  t....char....uns
 0100 69676e65 64206368 61720029 d303466c  igned char.)..Fl
 0110 61736844 65766963 6500a021 1e566572  ashDevice..!.Ver
 0120 730012e0 00022300 03b10212 f200017f  s.....#.........
 0130 001e4465 764e616d 65001228 01022302  ..DevName..(..#.
 0140 1e446576 54797065 0012e000 03238201  .DevType.....#..
 0150 1e446576 41647200 12cf0003 2384011e  .DevAdr.....#...
 0160 737a4465 760012cf 00032388 011e737a  szDev.....#...sz
 0170 50616765 0012cf00 03238c01 1e526573  Page.....#...Res
 0180 0012cf00 03239001 1e76616c 456d7074  .....#...valEmpt
 0190 790012fa 00032394 011e746f 50726f67  y.....#...toProg
 01a0 0012cf00 03239801 1e746f45 72617365  .....#...toErase
 01b0 0012cf00 03239c01 03c20312 d30101ff  .....#..........
 01c0 03001e73 6563746f 72730012 b8010323  ...sectors.....#
 01d0 a0010029 8704466c 61736853 6563746f  ...)..FlashSecto
 01e0 72730008 1e737a53 6563746f 720012cf  rs...szSector...
 01f0 00022300 1e416464 72536563 746f7200  ..#..AddrSector.
 0200 12cf0002 23040000 00000000 08030000  ....#...........
 0210 03000000 00000410 433a5c4b 65696c5f  ........C:\Keil_
 0220 76355c41 524d5c41 524d4343 5c42696e  v5\ARM\ARMCC\Bin
 0230 5c2e2e5c 696e636c 7564655c 73746469  \..\include\stdi
 0240 6e742e68 00436f6d 706f6e65 6e743a20  nt.h.Component: 
 0250 41524d20 436f6d70 696c6572 20352e30  ARM Compiler 5.0
 0260 36207570 64617465 20362028 6275696c  6 update 6 (buil
 0270 64203735 30292054 6f6f6c3a 2041726d  d 750) Tool: Arm
 0280 4343205b 34643336 33375d00 01007402  CC [4d3637]...t.
 0290 00009000 00000401 06736967 6e656420  .........signed 
 02a0 63686172 00040205 73686f72 74000404  char....short...
 02b0 05696e74 00040805 6c6f6e67 206c6f6e  .int....long lon
 02c0 67000401 08756e73 69676e65 64206368  g....unsigned ch
 02d0 61720004 0207756e 7369676e 65642073  ar....unsigned s
 02e0 686f7274 00040407 756e7369 676e6564  hort....unsigned
 02f0 20696e74 00040807 756e7369 676e6564   int....unsigned
 0300 206c6f6e 67206c6f 6e670050 696e7438   long long.Pint8
 0310 5f740012 8a000138 2050696e 7431365f  _t.....8 Pint16_
 0320 74001299 00013920 50696e74 33325f74  t.....9 Pint32_t
 0330 0012a200 013a2050 696e7436 345f7400  .....: Pint64_t.
 0340 12a90001 3b205075 696e7438 5f740012  ....; Puint8_t..
 0350 b600013e 20507569 6e743136 5f740012  ...> Puint16_t..
 0360 c700013f 20507569 6e743332 5f740012  ...? Puint32_t..
 0370 d9000140 20507569 6e743634 5f740012  ...@ Puint64_t..
 0380 e9000141 2050696e 745f6c65 61737438  ...A Pint_least8
 0390 5f740012 8a000147 2050696e 745f6c65  _t.....G Pint_le
 03a0 61737431 365f7400 12990001 48205069  ast16_t.....H Pi
 03b0 6e745f6c 65617374 33325f74 0012a200  nt_least32_t....
 03c0 01492050 696e745f 6c656173 7436345f  .I Pint_least64_
 03d0 740012a9 00014a20 5075696e 745f6c65  t.....J Puint_le
 03e0 61737438 5f740012 b600014d 20507569  ast8_t.....M Pui
 03f0 6e745f6c 65617374 31365f74 0012c700  nt_least16_t....
 0400 014e2050 75696e74 5f6c6561 73743332  .N Puint_least32
 0410 5f740012 d900014f 20507569 6e745f6c  _t.....O Puint_l
 0420 65617374 36345f74 0012e900 01502050  east64_t.....P P
 0430 696e745f 66617374 385f7400 12a20001  int_fast8_t.....
 0440 55205069 6e745f66 61737431 365f7400  U Pint_fast16_t.
 0450 12a20001 56205069 6e745f66 61737433  ....V Pint_fast3
 0460 325f7400 12a20001 57205069 6e745f66  2_t.....W Pint_f
 0470 61737436 345f7400 12a90001 58205075  ast64_t.....X Pu
 0480 696e745f 66617374 385f7400 12d90001  int_fast8_t.....
 0490 5b205075 696e745f 66617374 31365f74  [ Puint_fast16_t
 04a0 0012d900 015c2050 75696e74 5f666173  .....\ Puint_fas
 04b0 7433325f 740012d9 00015d20 5075696e  t32_t.....] Puin
 04c0 745f6661 73743634 5f740012 e900015e  t_fast64_t.....^
 04d0 2050696e 74707472 5f740012 a2000165   Pintptr_t.....e
 04e0 20507569 6e747074 725f7400 12d90001   Puintptr_t.....
 04f0 66205069 6e746d61 785f7400 12a90001  f Pintmax_t.....
 0500 6a215075 696e746d 61785f74 0012e900  j!Puintmax_t....
 0510 016b2100 00000000 d4000000 03000000  .k!.............
 0520 0000040a 466c6173 68446576 2e630043  ....FlashDev.c.C
 0530 6f6d706f 6e656e74 3a204152 4d20436f  omponent: ARM Co
 0540 6d70696c 65722035 2e303620 75706461  mpiler 5.06 upda
 0550 74652036 20286275 696c6420 37353029  te 6 (build 750)
 0560 20546f6f 6c3a2041 726d4343 205b3464   Tool: ArmCC [4d
 0570 33363337 5d000100 433a5c55 73657273  3637]...C:\Users
 0580 5c676172 72616261 5c446f77 6e6c6f61  \garraba\Downloa
 0590 64735c4b 65696c2e 53544d33 32483778  ds\Keil.STM32H7x
 05a0 785f4446 502e322e 322e3220 2831295c  x_DFP.2.2.2 (1)\
 05b0 4b65696c 2e53544d 33324837 78785f44  Keil.STM32H7xx_D
 05c0 46502e32 2e322e32 5c53544d 33324837  FP.2.2.2\STM32H7
 05d0 78785f63 7574325f 32303438 00000000  xx_cut2_2048....
 05e0 00000000 0011100b 01000000 00000000  ................
 05f0 04010000 03000000 0000040a 466c6173  ............Flas
 0600 68507267 2e630043 6f6d706f 6e656e74  hPrg.c.Component
 0610 3a204152 4d20436f 6d70696c 65722035  : ARM Compiler 5
 0620 2e303620 75706461 74652036 20286275  .06 update 6 (bu
 0630 696c6420 37353029 20546f6f 6c3a2041  ild 750) Tool: A
 0640 726d4343 205b3464 33363337 5d000100  rmCC [4d3637]...
 0650 433a5c55 73657273 5c676172 72616261  C:\Users\garraba
 0660 5c446f77 6e6c6f61 64735c4b 65696c2e  \Downloads\Keil.
 0670 53544d33 32483778 785f4446 502e322e  STM32H7xx_DFP.2.
 0680 322e3220 2831295c 4b65696c 2e53544d  2.2 (1)\Keil.STM
 0690 33324837 78785f44 46502e32 2e322e32  32H7xx_DFP.2.2.2
 06a0 5c53544d 33324837 78785f63 7574325f  \STM32H7xx_cut2_
 06b0 32303438 000c0000 00400000 00040405  2048.....@......
 06c0 696e7400 04040775 6e736967 6e656420  int....unsigned 
 06d0 6c6f6e67 00040108 756e7369 676e6564  long....unsigned
 06e0 20636861 72002212 e5007410 75030000   char."...t.u...
 06f0 2212fa00 00000000 e0000000 03000000  "...............
 0700 00000408 466c6173 68446576 2e630043  ....FlashDev.c.C
 0710 6f6d706f 6e656e74 3a204152 4d20436f  omponent: ARM Co
 0720 6d70696c 65722035 2e303620 75706461  mpiler 5.06 upda
 0730 74652036 20286275 696c6420 37353029  te 6 (build 750)
 0740 20546f6f 6c3a2041 726d4343 205b3464   Tool: ArmCC [4d
 0750 33363337 5d000100 433a5c55 73657273  3637]...C:\Users
 0760 5c676172 72616261 5c446f77 6e6c6f61  \garraba\Downloa
 0770 64735c4b 65696c2e 53544d33 32483778  ds\Keil.STM32H7x
 0780 785f4446 502e322e 322e3220 2831295c  x_DFP.2.2.2 (1)\
 0790 4b65696c 2e53544d 33324837 78785f44  Keil.STM32H7xx_D
 07a0 46502e32 2e322e32 5c53544d 33324837  FP.2.2.2\STM32H7
 07b0 78785f63 7574325f 32303438 0070466c  xx_cut2_2048.pFl
 07c0 61736844 65766963 650010e5 05000008  ashDevice.......
 07d0 0d040000 00790022 01000000 a8020000  .....y."........
 07e0 03000000 00000405 466c6173 68507267  ........FlashPrg
 07f0 2e630043 6f6d706f 6e656e74 3a204152  .c.Component: AR
 0800 4d20436f 6d70696c 65722035 2e303620  M Compiler 5.06 
 0810 75706461 74652036 20286275 696c6420  update 6 (build 
 0820 37353029 20546f6f 6c3a2041 726d4343  750) Tool: ArmCC
 0830 205b3464 33363337 5d000100 433a5c55   [4d3637]...C:\U
 0840 73657273 5c676172 72616261 5c446f77  sers\garraba\Dow
 0850 6e6c6f61 64735c4b 65696c2e 53544d33  nloads\Keil.STM3
 0860 32483778 785f4446 502e322e 322e3220  2H7xx_DFP.2.2.2 
 0870 2831295c 4b65696c 2e53544d 33324837  (1)\Keil.STM32H7
 0880 78785f44 46502e32 2e322e32 5c53544d  xx_DFP.2.2.2\STM
 0890 33324837 78785f63 7574325f 32303438  32H7xx_cut2_2048
 08a0 00000000 00c40300 00140100 00040405  ................
 08b0 696e7400 04040775 6e736967 6e656420  int....unsigned 
 08c0 6c6f6e67 00040108 756e7369 676e6564  long....unsigned
 08d0 20636861 72002212 e9003f96 02012306   char."...?...#.
 08e0 44534200 01000000 00060000 00880000  DSB.............
 08f0 00003ee7 02013105 496e6974 000112d1  ..>...1.Init....
 0900 00060000 00640000 00680000 00696164  .....d...h...iad
 0910 720012d8 00ca0100 0069636c 6b0012d8  r........iclk...
 0920 00b70100 0069666e 630012d8 00a40100  .....ifnc.......
 0930 005e5f5f 72657375 6c740012 d1000150  .^__result.....P
 0940 5c01003e a203016f 05556e49 6e697400  \..>...o.UnInit.
 0950 0112d100 64000000 84000000 54000000  ....d.......T...
 0960 69666e63 0012d800 86010000 5e5f5f72  ifnc........^__r
 0970 6573756c 740012d1 0001501e 01003ed5  esult.....P...>.
 0980 03017f05 45726173 65436869 70000112  ....EraseChip...
 0990 d1008400 00005601 00004000 00005e5f  ......V...@...^_
 09a0 5f726573 756c7400 12d10001 50d00101  _result.....P...
 09b0 003ea804 01b00105 45726173 65536563  .>......EraseSec
 09c0 746f7200 0112d100 56010000 62020000  tor.....V...b...
 09d0 20000000 69616472 0012d800 68010000   ...iadr....h...
 09e0 5f5f5f72 6573756c 740012d1 00420100  ___result....B..
 09f0 00015a53 6563746f 72001046 03000055  ..ZSector..F...U
 0a00 01000000 3ea80501 e3010550 726f6772  ....>......Progr
 0a10 616d5061 67650001 12d10062 020000c4  amPage.....b....
 0a20 03000000 00000069 61647200 12d80024  .......iadr....$
 0a30 01000069 737a0012 d8000601 00006962  ...isz........ib
 0a40 75660012 fa00e800 00005f5f 5f726573  uf........___res
 0a50 756c7400 12d1009c 00000001 5a646573  ult.........Zdes
 0a60 740010f0 060000d5 0000005a 73726300  t..........Zsrc.
 0a70 10f00600 00c20000 005a6900 12d100af  .........Zi.....
 0a80 00000000 00000000                    ........        
Contents of section .debug_line:
 0000 3c000000 03003100 00000100 00060d00  <.....1.........
 0010 01010101 00000000 00000100 466c6173  ............Flas
 0020 68446576 2e630000 00002e2e 5c466c61  hDev.c......\Fla
 0030 73684f53 2e480000 00000006 06000101  shOS.H..........
 0040 4c000000 03004000 00000100 00060d00  L.....@.........
 0050 01010101 00000000 00000100 466c6173  ............Flas
 0060 68507267 2e630000 00002e2e 5c466c61  hPrg.c......\Fla
 0070 73684f53 2e480000 00005354 4d333248  shOS.H....STM32H
 0080 3778782e 68000000 00000606 06000101  7xx.h...........
 0090 50000000 03004400 00000100 00060d00  P.....D.........
 00a0 01010101 00000000 00000143 3a5c4b65  ...........C:\Ke
 00b0 696c5f76 355c4152 4d5c4152 4d43435c  il_v5\ARM\ARMCC\
 00c0 42696e5c 2e2e5c69 6e636c75 64655c00  Bin\..\include\.
 00d0 00737464 696e742e 68000100 00000606  .stdint.h.......
 00e0 06000101 2c000000 03002300 00000100  ....,.....#.....
 00f0 00060d00 01010101 00000000 00000100  ................
 0100 2e2e5c46 6c617368 4f532e48 00000000  ..\FlashOS.H....
 0110 00000101 b0020000 03002100 00000200  ..........!.....
 0120 00060d00 01010101 00000000 00000100  ................
 0130 466c6173 68507267 2e630000 00000000  FlashPrg.c......
 0140 05020000 0000050c 03230601 06130501  .........#......
 0150 06140544 030c1306 13050203 0d061306  ...D............
 0160 13062006 13062d06 13061405 09130613  .. ...-.........
 0170 0502062e 0613061a 06130615 0613061a  ................
 0180 05091306 19050206 2e061306 20061305  ............ ...
 0190 03031606 1f050114 0520030b 13050315  ......... ......
 01a0 06130502 062c0619 0503062d 05011405  .....,.....-....
 01b0 02030c13 0613061a 05091306 13050206  ................
 01c0 2d061306 1a050913 06190502 062d0509  -............-..
 01d0 13061305 02062f06 13062c06 13062606  ....../...,...&.
 01e0 13050306 27050a13 06130502 062f0613  ....'......../..
 01f0 062d0509 13061905 02063006 19063206  .-........0...2.
 0200 13063206 13050306 33050a13 06190502  ..2.....3.......
 0210 062f0619 05030633 05011405 25030b13  ./.....3....%...
 0220 06130511 06150613 05020615 06130506  ................
 0230 06190613 0503061b 0613062c 050a1306  ...........,....
 0240 13050506 2d061306 32061306 38061305  ....-...2...8...
 0250 03062705 0a130613 0503062d 0613062d  ..'........-...-
 0260 06130504 06260501 03141305 03037013  .....&........p.
 0270 06130632 050a1306 19050506 2d061906  ...2........-...
 0280 38061906 4a061305 03063305 0a130619  8...J.....3.....
 0290 0503062d 06190633 06250504 06260613  ...-...3.%...&..
 02a0 05030616 0613054b 030e0613 06130516  .......K........
 02b0 06211405 08140502 17061305 06061906  .!..............
 02c0 13050306 1b050a13 06130503 062c0613  .............,..
 02d0 0623050a 13061905 03062c06 13061c15  .#........,.....
 02e0 06130507 06190613 0504061b 06130632  ...............2
 02f0 0613061d 06190638 06130503 06220613  .......8....."..
 0300 05090616 05041305 05150613 0511037e  ...............~
 0310 062b050d 13061305 04030606 13061305  .+..............
 0320 0a061705 05130506 15061305 15037e06  ..............~.
 0330 1f050e13 0613050a 06170505 13050615  ................
 0340 0613051c 037e0619 050e1306 13050406  .....~..........
 0350 24050816 06130502 06150613 05060619  $...............
 0360 06130503 061a050a 13061305 03063305  ..............3.
 0370 0a130619 0503062e 06130504 06210613  .............!..
 0380 05080619 06130505 061a0613 06330619  .............3..
 0390 05040633 0501030a 13050503 79130613  ...3........y...
 03a0 05090619 06130504 061a0613 06330619  .............3..
 03b0 050a0345 06310613 0503033e 06190613  ...E.1.....>....
 03c0 02010606 06000101                    ........        
Contents of section .debug_loc:
 0000 62020000 64020000 02007d00 64020000  b...d.....}.d...
 0010 c4030000 02007d14 00000000 00000000  ......}.........
 0020 56010000 58010000 02007d00 58010000  V...X.....}.X...
 0030 62020000 02007d08 00000000 00000000  b.....}.........
 0040 84000000 56010000 02007d00 00000000  ....V.....}.....
 0050 00000000 64000000 84000000 02007d00  ....d.........}.
 0060 00000000 00000000 06000000 08000000  ................
 0070 02007d00 08000000 64000000 02007d08  ..}.....d.....}.
 0080 00000000 00000000 00000000 06000000  ................
 0090 02007d00 00000000 00000000 8e030000  ..}.............
 00a0 90030000 01005000 00000000 00000070  ......P........p
 00b0 020000c2 03000001 00520000 00000000  .........R......
 00c0 00006e02 0000c203 00000100 55000000  ..n.........U...
 00d0 00000000 006c0200 00c20300 00010051  .....l.........Q
 00e0 00000000 00000000 62020000 6c020000  ........b...l...
 00f0 0100526c 020000c2 03000001 00560000  ..Rl.........V..
 0100 00000000 00006202 00006802 00000100  ......b...h.....
 0110 51680200 00c20300 00010054 00000000  Qh.........T....
 0120 00000000 62020000 66020000 01005066  ....b...f.....Pf
 0130 020000c2 03000001 00530000 00000000  .........S......
 0140 0000d201 0000d401 00000100 50000000  ............P...
 0150 00000000 005e0100 00600200 00010052  .....^...`.....R
 0160 00000000 00000000 56010000 5e010000  ........V...^...
 0170 0100505e 01000060 02000001 00510000  ..P^...`.....Q..
 0180 00000000 00006400 00006800 00000100  ......d...h.....
 0190 50680000 00840000 00010051 00000000  Ph.........Q....
 01a0 00000000 06000000 64000000 01005200  ........d.....R.
 01b0 00000000 00000006 00000064 00000001  ...........d....
 01c0 00510000 00000000 00000600 00000e00  .Q..............
 01d0 00000100 500e0000 00640000 00010053  ....P....d.....S
 01e0 00000000 00000000                    ........        
Contents of section .debug_macinfo:
 0000 03000103 0a020404 00000000 03000103  ................
 0010 0b020403 0c030401 0e464c41 53485f4b  .........FLASH_K
 0020 45593120 28287569 6e743332 5f742930  EY1 ((uint32_t)0
 0030 78343536 37303132 33290001 0f464c41  x45670123)...FLA
 0040 53485f4b 45593220 28287569 6e743332  SH_KEY2 ((uint32
 0050 5f742930 78434445 46383941 42290001  _t)0xCDEF89AB)..
 0060 11464c41 53485f50 444b4559 31202828  .FLASH_PDKEY1 ((
 0070 75696e74 33325f74 29307830 34313532  uint32_t)0x04152
 0080 36333729 00011246 4c415348 5f50444b  637)...FLASH_PDK
 0090 45593220 28287569 6e743332 5f742930  EY2 ((uint32_t)0
 00a0 78464146 42464346 44290001 14464c41  xFAFBFCFD)...FLA
 00b0 53485f4f 50544b45 59312028 2875696e  SH_OPTKEY1 ((uin
 00c0 7433325f 74293078 30383139 32413342  t32_t)0x08192A3B
 00d0 29000115 464c4153 485f4f50 544b4559  )...FLASH_OPTKEY
 00e0 32202828 75696e74 33325f74 29307834  2 ((uint32_t)0x4
 00f0 43354436 45374629 00011746 4c415348  C5D6E7F)...FLASH
 0100 5f464c41 475f4253 59202828 75696e74  _FLAG_BSY ((uint
 0110 33325f74 29307830 30303030 30303129  32_t)0x00000001)
 0120 00011846 4c415348 5f464c41 475f454f  ...FLASH_FLAG_EO
 0130 50202828 75696e74 33325f74 29307830  P ((uint32_t)0x0
 0140 30303130 30303029 00011946 4c415348  0010000)...FLASH
 0150 5f464c41 475f454f 50455252 20282875  _FLAG_EOPERR ((u
 0160 696e7433 325f7429 30783030 34303030  int32_t)0x004000
 0170 30302900 011a464c 4153485f 464c4147  00)...FLASH_FLAG
 0180 5f515720 28287569 6e743332 5f742930  _QW ((uint32_t)0
 0190 78303030 30303030 34290001 1d564f4c  x00000004)...VOL
 01a0 54414745 5f52414e 47452030 00011f46  TAGE_RANGE 0...F
 01b0 4c415348 5f42414e 4b315f42 41534520  LASH_BANK1_BASE 
 01c0 464c4153 485f4241 53450001 20464c41  FLASH_BASE.. FLA
 01d0 53485f42 414e4b32 5f424153 45202846  SH_BANK2_BASE (F
 01e0 4c415348 5f424153 45202b20 30783030  LASH_BASE + 0x00
 01f0 31303030 30302900 01214953 5f464c41  100000)..!IS_FLA
 0200 53485f42 414e4b31 5f414444 52455353  SH_BANK1_ADDRESS
 0210 28414444 52455353 29202828 28414444  (ADDRESS) (((ADD
 0220 52455353 29203e3d 20464c41 53485f42  RESS) >= FLASH_B
 0230 414e4b31 5f424153 45292026 26202828  ANK1_BASE) && ((
 0240 41444452 45535329 203c3d20 28464c41  ADDRESS) <= (FLA
 0250 53485f42 414e4b31 5f424153 45202b20  SH_BANK1_BASE + 
 0260 30783030 30464646 46462920 29290004  0x000FFFFF) ))..
 0270 00000000 03000101 0b5f5f73 7464696e  .........__stdin
 0280 745f6820 00010c5f 5f41524d 434c4942  t_h ...__ARMCLIB
 0290 5f564552 53494f4e 20353036 30303337  _VERSION 5060037
 02a0 0001135f 5f494e54 3634205f 5f696e74  ...__INT64 __int
 02b0 36340001 145f5f49 4e543634 5f435f53  64...__INT64_C_S
 02c0 55464649 585f5f20 6c6c0001 165f5f50  UFFIX__ ll...__P
 02d0 41535445 3228782c 79292078 20232320  ASTE2(x,y) x ## 
 02e0 79000117 5f5f5041 53544528 782c7929  y...__PASTE(x,y)
 02f0 205f5f50 41535445 3228782c 20792900   __PASTE2(x, y).
 0300 01185f5f 494e5436 345f4328 7829205f  ..__INT64_C(x) _
 0310 5f455343 4150455f 5f285f5f 50415354  _ESCAPE__(__PAST
 0320 4528782c 205f5f49 4e543634 5f435f53  E(x, __INT64_C_S
 0330 55464649 585f5f29 29000119 5f5f5549  UFFIX__))...__UI
 0340 4e543634 5f432878 29205f5f 45534341  NT64_C(x) __ESCA
 0350 50455f5f 285f5f50 41535445 28782023  PE__(__PASTE(x #
 0360 2320752c 205f5f49 4e543634 5f435f53  # u, __INT64_C_S
 0370 55464649 585f5f29 2900011c 5f5f4c4f  UFFIX__))...__LO
 0380 4e474c4f 4e47206c 6f6e6720 6c6f6e67  NGLONG long long
 0390 0001235f 5f535444 494e545f 4445434c  ..#__STDINT_DECL
 03a0 53200002 255f5f43 4c49424e 5300012c  S ..%__CLIBNS..,
 03b0 5f5f434c 49424e53 20000173 494e5438  __CLIBNS ..sINT8
 03c0 5f4d494e 202d3132 38000174 494e5431  _MIN -128..tINT1
 03d0 365f4d49 4e202d33 32373638 00017549  6_MIN -32768..uI
 03e0 4e543332 5f4d494e 20287e30 78376666  NT32_MIN (~0x7ff
 03f0 66666666 66290001 76494e54 36345f4d  fffff)..vINT64_M
 0400 494e205f 5f494e54 36345f43 287e3078  IN __INT64_C(~0x
 0410 37666666 66666666 66666666 66666666  7fffffffffffffff
 0420 29000179 494e5438 5f4d4158 20313237  )..yINT8_MAX 127
 0430 00017a49 4e543136 5f4d4158 20333237  ..zINT16_MAX 327
 0440 36370001 7b494e54 33325f4d 41582032  67..{INT32_MAX 2
 0450 31343734 38333634 3700017c 494e5436  147483647..|INT6
 0460 345f4d41 58205f5f 494e5436 345f4328  4_MAX __INT64_C(
 0470 39323233 33373230 33363835 34373735  9223372036854775
 0480 38303729 00017f55 494e5438 5f4d4158  807)...UINT8_MAX
 0490 20323535 00018001 55494e54 31365f4d   255....UINT16_M
 04a0 41582036 35353335 00018101 55494e54  AX 65535....UINT
 04b0 33325f4d 41582034 32393439 36373239  32_MAX 429496729
 04c0 35750001 82015549 4e543634 5f4d4158  5u....UINT64_MAX
 04d0 205f5f55 494e5436 345f4328 31383434   __UINT64_C(1844
 04e0 36373434 30373337 30393535 31363135  6744073709551615
 04f0 29000187 01494e54 5f4c4541 5354385f  )....INT_LEAST8_
 0500 4d494e20 2d313238 00018801 494e545f  MIN -128....INT_
 0510 4c454153 5431365f 4d494e20 2d333237  LEAST16_MIN -327
 0520 36380001 8901494e 545f4c45 41535433  68....INT_LEAST3
 0530 325f4d49 4e20287e 30783766 66666666  2_MIN (~0x7fffff
 0540 66662900 018a0149 4e545f4c 45415354  ff)....INT_LEAST
 0550 36345f4d 494e205f 5f494e54 36345f43  64_MIN __INT64_C
 0560 287e3078 37666666 66666666 66666666  (~0x7fffffffffff
 0570 66666666 2900018d 01494e54 5f4c4541  ffff)....INT_LEA
 0580 5354385f 4d415820 31323700 018e0149  ST8_MAX 127....I
 0590 4e545f4c 45415354 31365f4d 41582033  NT_LEAST16_MAX 3
 05a0 32373637 00018f01 494e545f 4c454153  2767....INT_LEAS
 05b0 5433325f 4d415820 32313437 34383336  T32_MAX 21474836
 05c0 34370001 9001494e 545f4c45 41535436  47....INT_LEAST6
 05d0 345f4d41 58205f5f 494e5436 345f4328  4_MAX __INT64_C(
 05e0 39323233 33373230 33363835 34373735  9223372036854775
 05f0 38303729 00019301 55494e54 5f4c4541  807)....UINT_LEA
 0600 5354385f 4d415820 32353500 01940155  ST8_MAX 255....U
 0610 494e545f 4c454153 5431365f 4d415820  INT_LEAST16_MAX 
 0620 36353533 35000195 0155494e 545f4c45  65535....UINT_LE
 0630 41535433 325f4d41 58203432 39343936  AST32_MAX 429496
 0640 37323935 75000196 0155494e 545f4c45  7295u....UINT_LE
 0650 41535436 345f4d41 58205f5f 55494e54  AST64_MAX __UINT
 0660 36345f43 28313834 34363734 34303733  64_C(18446744073
 0670 37303935 35313631 35290001 9b01494e  709551615)....IN
 0680 545f4641 5354385f 4d494e20 287e3078  T_FAST8_MIN (~0x
 0690 37666666 66666666 2900019c 01494e54  7fffffff)....INT
 06a0 5f464153 5431365f 4d494e20 287e3078  _FAST16_MIN (~0x
 06b0 37666666 66666666 2900019d 01494e54  7fffffff)....INT
 06c0 5f464153 5433325f 4d494e20 287e3078  _FAST32_MIN (~0x
 06d0 37666666 66666666 2900019e 01494e54  7fffffff)....INT
 06e0 5f464153 5436345f 4d494e20 5f5f494e  _FAST64_MIN __IN
 06f0 5436345f 43287e30 78376666 66666666  T64_C(~0x7ffffff
 0700 66666666 66666666 66290001 a101494e  fffffffff)....IN
 0710 545f4641 5354385f 4d415820 32313437  T_FAST8_MAX 2147
 0720 34383336 34370001 a201494e 545f4641  483647....INT_FA
 0730 53543136 5f4d4158 20323134 37343833  ST16_MAX 2147483
 0740 36343700 01a30149 4e545f46 41535433  647....INT_FAST3
 0750 325f4d41 58203231 34373438 33363437  2_MAX 2147483647
 0760 0001a401 494e545f 46415354 36345f4d  ....INT_FAST64_M
 0770 4158205f 5f494e54 36345f43 28393232  AX __INT64_C(922
 0780 33333732 30333638 35343737 35383037  3372036854775807
 0790 290001a7 0155494e 545f4641 5354385f  )....UINT_FAST8_
 07a0 4d415820 34323934 39363732 39357500  MAX 4294967295u.
 07b0 01a80155 494e545f 46415354 31365f4d  ...UINT_FAST16_M
 07c0 41582034 32393439 36373239 35750001  AX 4294967295u..
 07d0 a9015549 4e545f46 41535433 325f4d41  ..UINT_FAST32_MA
 07e0 58203432 39343936 37323935 750001aa  X 4294967295u...
 07f0 0155494e 545f4641 53543634 5f4d4158  .UINT_FAST64_MAX
 0800 205f5f55 494e5436 345f4328 31383434   __UINT64_C(1844
 0810 36373434 30373337 30393535 31363135  6744073709551615
 0820 290001b2 01494e54 5054525f 4d494e20  )....INTPTR_MIN 
 0830 494e5433 325f4d49 4e0001b9 01494e54  INT32_MIN....INT
 0840 5054525f 4d415820 494e5433 325f4d41  PTR_MAX INT32_MA
 0850 580001c0 0155494e 54505452 5f4d4158  X....UINTPTR_MAX
 0860 2055494e 5433325f 4d415800 01c60149   UINT32_MAX....I
 0870 4e544d41 585f4d49 4e205f5f 45534341  NTMAX_MIN __ESCA
 0880 50455f5f 287e3078 37666666 66666666  PE__(~0x7fffffff
 0890 66666666 66666666 6c6c2900 01c90149  ffffffffll)....I
 08a0 4e544d41 585f4d41 58205f5f 45534341  NTMAX_MAX __ESCA
 08b0 50455f5f 28393232 33333732 30333638  PE__(92233720368
 08c0 35343737 35383037 6c6c2900 01cc0155  54775807ll)....U
 08d0 494e544d 41585f4d 4158205f 5f455343  INTMAX_MAX __ESC
 08e0 4150455f 5f283138 34343637 34343037  APE__(1844674407
 08f0 33373039 35353136 3135756c 6c290001  3709551615ull)..
 0900 d5015054 52444946 465f4d49 4e20494e  ..PTRDIFF_MIN IN
 0910 5433325f 4d494e00 01d60150 54524449  T32_MIN....PTRDI
 0920 46465f4d 41582049 4e543332 5f4d4158  FF_MAX INT32_MAX
 0930 0001da01 5349475f 41544f4d 49435f4d  ....SIG_ATOMIC_M
 0940 494e2028 7e307837 66666666 66666629  IN (~0x7fffffff)
 0950 0001db01 5349475f 41544f4d 49435f4d  ....SIG_ATOMIC_M
 0960 41582032 31343734 38333634 370001e1  AX 2147483647...
 0970 0153495a 455f4d41 58205549 4e543332  .SIZE_MAX UINT32
 0980 5f4d4158 0002e701 57434841 525f4d49  _MAX....WCHAR_MI
 0990 4e0002e8 01574348 41525f4d 41580001  N....WCHAR_MAX..
 09a0 ee015743 4841525f 4d494e20 300001ef  ..WCHAR_MIN 0...
 09b0 01574348 41525f4d 41582036 35353335  .WCHAR_MAX 65535
 09c0 0001f301 57494e54 5f4d494e 20287e30  ....WINT_MIN (~0
 09d0 78376666 66666666 66290001 f4015749  x7fffffff)....WI
 09e0 4e545f4d 41582032 31343734 38333634  NT_MAX 214748364
 09f0 370001fb 01494e54 385f4328 78292028  7....INT8_C(x) (
 0a00 78290001 fc01494e 5431365f 43287829  x)....INT16_C(x)
 0a10 20287829 0001fd01 494e5433 325f4328   (x)....INT32_C(
 0a20 78292028 78290001 fe01494e 5436345f  x) (x)....INT64_
 0a30 43287829 205f5f49 4e543634 5f432878  C(x) __INT64_C(x
 0a40 29000180 0255494e 54385f43 28782920  )....UINT8_C(x) 
 0a50 28782023 23207529 00018102 55494e54  (x ## u)....UINT
 0a60 31365f43 28782920 28782023 23207529  16_C(x) (x ## u)
 0a70 00018202 55494e54 33325f43 28782920  ....UINT32_C(x) 
 0a80 28782023 23207529 00018302 55494e54  (x ## u)....UINT
 0a90 36345f43 28782920 5f5f5549 4e543634  64_C(x) __UINT64
 0aa0 5f432878 29000186 02494e54 4d41585f  _C(x)....INTMAX_
 0ab0 43287829 205f5f45 53434150 455f5f28  C(x) __ESCAPE__(
 0ac0 78202323 206c6c29 00018702 55494e54  x ## ll)....UINT
 0ad0 4d41585f 43287829 205f5f45 53434150  MAX_C(x) __ESCAP
 0ae0 455f5f28 78202323 20756c6c 290002b2  E__(x ## ull)...
 0af0 025f5f49 4e543634 0002b302 5f5f4c4f  .__INT64....__LO
 0b00 4e474c4f 4e470004 00000000 03000101  NGLONG..........
 0b10 20564552 53203100 0122554e 4b4e4f57   VERS 1.."UNKNOW
 0b20 4e203000 01234f4e 43484950 20310001  N 0..#ONCHIP 1..
 0b30 24455854 38424954 20320001 25455854  $EXT8BIT 2..%EXT
 0b40 31364249 54203300 01264558 54333242  16BIT 3..&EXT32B
 0b50 49542034 00012745 58545350 49203500  IT 4..'EXTSPI 5.
 0b60 01295345 43544f52 5f4e554d 20353132  .)SECTOR_NUM 512
 0b70 00012a50 4147455f 4d415820 36353533  ..*PAGE_MAX 6553
 0b80 36000131 53454354 4f525f45 4e442030  6..1SECTOR_END 0
 0b90 78464646 46464646 462c2030 78464646  xFFFFFFFF, 0xFFF
 0ba0 46464646 46000143 464c4153 485f4452  FFFFF..CFLASH_DR
 0bb0 565f5645 52532028 30783031 30302b56  V_VERS (0x0100+V
 0bc0 45525329 00040000                    ERS)....        
Contents of section .debug_pubnames:
 0000 1e000000 0200f806 0000e400 0000c500  ................
 0010 0000466c 61736844 65766963 65000000  ..FlashDevice...
 0020 00005800 00000200 dc070000 ac020000  ..X.............
 0030 fe000000 44534200 16010000 496e6974  ....DSB.....Init
 0040 00670100 00556e49 6e697400 a2010000  .g...UnInit.....
 0050 45726173 65436869 7000d501 00004572  EraseChip.....Er
 0060 61736553 6563746f 72002802 00005072  aseSector.(...Pr
 0070 6f677261 6d506167 65000000 0000      ogramPage.....  
Contents of section .note:
 0000 04000000 0c000000 00000040 41524d00  ...........@ARM.
 0010 00000000 00000000 01000000           ............    
Contents of section .comment:
 0000 436f6d70 6f6e656e 743a2041 524d2043  Component: ARM C
 0010 6f6d7069 6c657220 352e3036 20757064  ompiler 5.06 upd
 0020 61746520 36202862 75696c64 20373530  ate 6 (build 750
 0030 2920546f 6f6c3a20 61726d6c 696e6b20  ) Tool: armlink 
 0040 5b346433 3565645d 0041726d 4c696e6b  [4d35ed].ArmLink
 0050 202d2d73 74726963 74202d2d 6c6f6164   --strict --load
 0060 5f616464 725f6d61 705f696e 666f202d  _addr_map_info -
 0070 2d6d6170 202d2d73 796d626f 6c73202d  -map --symbols -
 0080 2d646961 675f7375 70707265 73733d39  -diag_suppress=9
 0090 3933312c 4c363330 35202d2d 6370753d  931,L6305 --cpu=
 00a0 436f7274 65782d4d 34202d2d 6670753d  Cortex-M4 --fpu=
 00b0 536f6674 56465020 2d2d6c69 73743d2e  SoftVFP --list=.
 00c0 5c4f7574 5c53544d 33324837 785f3230  \Out\STM32H7x_20
 00d0 34382e6d 6170202d 2d6f7574 7075743d  48.map --output=
 00e0 2e5c4f75 745c5354 4d333248 37785f32  .\Out\STM32H7x_2
 00f0 3034382e 61786620 2d2d7363 61747465  048.axf --scatte
 0100 723d2e5c 54617267 65742e6c 696e202d  r=.\Target.lin -
 0110 2d696e66 6f3d7375 6d6d6172 7973697a  -info=summarysiz
 0120 65732c73 697a6573 2c746f74 616c732c  es,sizes,totals,
 0130 756e7573 65642c76 656e6565 72730a00  unused,veneers..
 0140 496e7075 7420436f 6d6d656e 74733a00  Input Comments:.
 0150 00666c61 73687072 672e6f00 00436f6d  .flashprg.o..Com
 0160 706f6e65 6e743a20 41524d20 436f6d70  ponent: ARM Comp
 0170 696c6572 20352e30 36207570 64617465  iler 5.06 update
 0180 20362028 6275696c 64203735 30292054   6 (build 750) T
 0190 6f6f6c3a 2041726d 4343205b 34643336  ool: ArmCC [4d36
 01a0 33375d00 41726d43 43202d2d 64656275  37].ArmCC --debu
 01b0 67202d63 202d6f2e 5c6f7574 5c666c61  g -c -o.\out\fla
 01c0 73687072 672e6f20 2d2d6465 70656e64  shprg.o --depend
 01d0 3d2e5c6f 75745c66 6c617368 7072672e  =.\out\flashprg.
 01e0 64202d2d 6370753d 436f7274 65782d4d  d --cpu=Cortex-M
 01f0 34202d2d 61706373 3d696e74 6572776f  4 --apcs=interwo
 0200 726b2f2f 726f7069 2f727770 69202d4f  rk//ropi/rwpi -O
 0210 30202d2d 64696167 5f737570 70726573  0 --diag_suppres
 0220 733d3939 3331202d 492e2f20 2d492e2e  s=9931 -I./ -I..
 0230 5c2e2e5c 5041434b 5c4b6569 6c5c5354  \..\PACK\Keil\ST
 0240 4d333246 3778785f 4446505c 322e392e  M32F7xx_DFP\2.9.
 0250 305c4472 69766572 735c434d 5349535c  0\Drivers\CMSIS\
 0260 496e636c 75646520 2d49433a 5c4b6569  Include -IC:\Kei
 0270 6c5f7635 5c41524d 5c525633 315c494e  l_v5\ARM\RV31\IN
 0280 43202d49 433a5c4b 65696c5f 76355c41  C -IC:\Keil_v5\A
 0290 524d5c43 4d534953 5c496e63 6c756465  RM\CMSIS\Include
 02a0 202d4943 3a5c4b65 696c5f76 355c4152   -IC:\Keil_v5\AR
 02b0 4d5c494e 435c5354 5c53544d 3332202d  M\INC\ST\STM32 -
 02c0 445f5f55 56495349 4f4e5f56 45525349  D__UVISION_VERSI
 02d0 4f4e3d35 3235202d 44464c41 53485f4d  ON=525 -DFLASH_M
 02e0 454d202d 4453544d 33324837 37367878  EM -DSTM32H776xx
 02f0 202d4443 4f52455f 434d3720 2d2d6f6d   -DCORE_CM7 --om
 0300 665f6272 6f777365 3d2e5c6f 75745c66  f_browse=.\out\f
 0310 6c617368 7072672e 63726620 466c6173  lashprg.crf Flas
 0320 68507267 2e630000 666c6173 68646576  hPrg.c..flashdev
 0330 2e6f0000 436f6d70 6f6e656e 743a2041  .o..Component: A
 0340 524d2043 6f6d7069 6c657220 352e3036  RM Compiler 5.06
 0350 20757064 61746520 36202862 75696c64   update 6 (build
 0360 20373530 2920546f 6f6c3a20 41726d43   750) Tool: ArmC
 0370 43205b34 64333633 375d0041 726d4343  C [4d3637].ArmCC
 0380 202d2d64 65627567 202d6320 2d6f2e5c   --debug -c -o.\
 0390 6f75745c 666c6173 68646576 2e6f202d  out\flashdev.o -
 03a0 2d646570 656e643d 2e5c6f75 745c666c  -depend=.\out\fl
 03b0 61736864 65762e64 202d2d63 70753d43  ashdev.d --cpu=C
 03c0 6f727465 782d4d34 202d2d61 7063733d  ortex-M4 --apcs=
 03d0 696e7465 72776f72 6b2f2f72 6f70692f  interwork//ropi/
 03e0 72777069 202d4f30 202d2d64 6961675f  rwpi -O0 --diag_
 03f0 73757070 72657373 3d393933 31202d49  suppress=9931 -I
 0400 2e2f202d 492e2e5c 2e2e5c50 41434b5c  ./ -I..\..\PACK\
 0410 4b65696c 5c53544d 33324637 78785f44  Keil\STM32F7xx_D
 0420 46505c32 2e392e30 5c447269 76657273  FP\2.9.0\Drivers
 0430 5c434d53 49535c49 6e636c75 6465202d  \CMSIS\Include -
 0440 49433a5c 4b65696c 5f76355c 41524d5c  IC:\Keil_v5\ARM\
 0450 52563331 5c494e43 202d4943 3a5c4b65  RV31\INC -IC:\Ke
 0460 696c5f76 355c4152 4d5c434d 5349535c  il_v5\ARM\CMSIS\
 0470 496e636c 75646520 2d49433a 5c4b6569  Include -IC:\Kei
 0480 6c5f7635 5c41524d 5c494e43 5c53545c  l_v5\ARM\INC\ST\
 0490 53544d33 32202d44 5f5f5556 4953494f  STM32 -D__UVISIO
 04a0 4e5f5645 5253494f 4e3d3532 35202d44  N_VERSION=525 -D
 04b0 464c4153 485f4d45 4d202d44 53544d33  FLASH_MEM -DSTM3
 04c0 32483737 36787820 2d44434f 52455f43  2H776xx -DCORE_C
 04d0 4d37202d 2d6f6d66 5f62726f 7773653d  M7 --omf_browse=
 04e0 2e5c6f75 745c666c 61736864 65762e63  .\out\flashdev.c
 04f0 72662046 6c617368 4465762e 63000000  rf FlashDev.c...

Disassembly of section PrgCode:

00000000 <DSB>:
   0:	f3bf 8f4f 	dsb	sy
   4:	4770      	bx	lr

00000006 <Init>:
   6:	b510      	push	{r4, lr}
   8:	4603      	mov	r3, r0
   a:	f44f 7080 	mov.w	r0, #256	; 0x100
   e:	4ced      	ldr	r4, [pc, #948]	; (3c4 <ProgramPage+0x162>)
  10:	6020      	str	r0, [r4, #0]
  12:	48ed      	ldr	r0, [pc, #948]	; (3c8 <ProgramPage+0x166>)
  14:	6800      	ldr	r0, [r0, #0]
  16:	f040 0007 	orr.w	r0, r0, #7
  1a:	4ceb      	ldr	r4, [pc, #940]	; (3c8 <ProgramPage+0x166>)
  1c:	6020      	str	r0, [r4, #0]
  1e:	48eb      	ldr	r0, [pc, #940]	; (3cc <ProgramPage+0x16a>)
  20:	6160      	str	r0, [r4, #20]
  22:	bf00      	nop
  24:	48e8      	ldr	r0, [pc, #928]	; (3c8 <ProgramPage+0x166>)
  26:	6900      	ldr	r0, [r0, #16]
  28:	f000 0004 	and.w	r0, r0, #4
  2c:	2800      	cmp	r0, #0
  2e:	d1f9      	bne.n	24 <Init+0x1e>
  30:	48e7      	ldr	r0, [pc, #924]	; (3d0 <ProgramPage+0x16e>)
  32:	4ce5      	ldr	r4, [pc, #916]	; (3c8 <ProgramPage+0x166>)
  34:	6060      	str	r0, [r4, #4]
  36:	48e7      	ldr	r0, [pc, #924]	; (3d4 <ProgramPage+0x172>)
  38:	6060      	str	r0, [r4, #4]
  3a:	48e4      	ldr	r0, [pc, #912]	; (3cc <ProgramPage+0x16a>)
  3c:	4ce6      	ldr	r4, [pc, #920]	; (3d8 <ProgramPage+0x176>)
  3e:	6020      	str	r0, [r4, #0]
  40:	bf00      	nop
  42:	48e5      	ldr	r0, [pc, #916]	; (3d8 <ProgramPage+0x176>)
  44:	1f00      	subs	r0, r0, #4
  46:	6800      	ldr	r0, [r0, #0]
  48:	f000 0004 	and.w	r0, r0, #4
  4c:	2800      	cmp	r0, #0
  4e:	d1f8      	bne.n	42 <Init+0x3c>
  50:	48df      	ldr	r0, [pc, #892]	; (3d0 <ProgramPage+0x16e>)
  52:	4ce1      	ldr	r4, [pc, #900]	; (3d8 <ProgramPage+0x176>)
  54:	3c10      	subs	r4, #16
  56:	6020      	str	r0, [r4, #0]
  58:	48de      	ldr	r0, [pc, #888]	; (3d4 <ProgramPage+0x172>)
  5a:	4cdb      	ldr	r4, [pc, #876]	; (3c8 <ProgramPage+0x166>)
  5c:	f8c4 0104 	str.w	r0, [r4, #260]	; 0x104
  60:	2000      	movs	r0, #0
  62:	bd10      	pop	{r4, pc}

00000064 <UnInit>:
  64:	4601      	mov	r1, r0
  66:	48d8      	ldr	r0, [pc, #864]	; (3c8 <ProgramPage+0x166>)
  68:	68c0      	ldr	r0, [r0, #12]
  6a:	f040 0001 	orr.w	r0, r0, #1
  6e:	4ad6      	ldr	r2, [pc, #856]	; (3c8 <ProgramPage+0x166>)
  70:	60d0      	str	r0, [r2, #12]
  72:	48d9      	ldr	r0, [pc, #868]	; (3d8 <ProgramPage+0x176>)
  74:	3808      	subs	r0, #8
  76:	6800      	ldr	r0, [r0, #0]
  78:	f040 0001 	orr.w	r0, r0, #1
  7c:	f8c2 010c 	str.w	r0, [r2, #268]	; 0x10c
  80:	2000      	movs	r0, #0
  82:	4770      	bx	lr

00000084 <EraseChip>:
  84:	48d1      	ldr	r0, [pc, #836]	; (3cc <ProgramPage+0x16a>)
  86:	49d0      	ldr	r1, [pc, #832]	; (3c8 <ProgramPage+0x166>)
  88:	6148      	str	r0, [r1, #20]
  8a:	bf00      	nop
  8c:	48ce      	ldr	r0, [pc, #824]	; (3c8 <ProgramPage+0x166>)
  8e:	6900      	ldr	r0, [r0, #16]
  90:	f000 0004 	and.w	r0, r0, #4
  94:	2800      	cmp	r0, #0
  96:	d1f9      	bne.n	8c <EraseChip+0x8>
  98:	48cc      	ldr	r0, [pc, #816]	; (3cc <ProgramPage+0x16a>)
  9a:	49cf      	ldr	r1, [pc, #828]	; (3d8 <ProgramPage+0x176>)
  9c:	6008      	str	r0, [r1, #0]
  9e:	bf00      	nop
  a0:	48cd      	ldr	r0, [pc, #820]	; (3d8 <ProgramPage+0x176>)
  a2:	1f00      	subs	r0, r0, #4
  a4:	6800      	ldr	r0, [r0, #0]
  a6:	f000 0004 	and.w	r0, r0, #4
  aa:	2800      	cmp	r0, #0
  ac:	d1f8      	bne.n	a0 <EraseChip+0x1c>
  ae:	bf00      	nop
  b0:	48c5      	ldr	r0, [pc, #788]	; (3c8 <ProgramPage+0x166>)
  b2:	6900      	ldr	r0, [r0, #16]
  b4:	f000 0004 	and.w	r0, r0, #4
  b8:	2800      	cmp	r0, #0
  ba:	d1f9      	bne.n	b0 <EraseChip+0x2c>
  bc:	48c2      	ldr	r0, [pc, #776]	; (3c8 <ProgramPage+0x166>)
  be:	68c0      	ldr	r0, [r0, #12]
  c0:	f020 0030 	bic.w	r0, r0, #48	; 0x30
  c4:	49c0      	ldr	r1, [pc, #768]	; (3c8 <ProgramPage+0x166>)
  c6:	60c8      	str	r0, [r1, #12]
  c8:	4608      	mov	r0, r1
  ca:	68c0      	ldr	r0, [r0, #12]
  cc:	f040 0008 	orr.w	r0, r0, #8
  d0:	60c8      	str	r0, [r1, #12]
  d2:	4608      	mov	r0, r1
  d4:	68c0      	ldr	r0, [r0, #12]
  d6:	f040 0080 	orr.w	r0, r0, #128	; 0x80
  da:	60c8      	str	r0, [r1, #12]
  dc:	bf00      	nop
  de:	48ba      	ldr	r0, [pc, #744]	; (3c8 <ProgramPage+0x166>)
  e0:	6900      	ldr	r0, [r0, #16]
  e2:	f000 0004 	and.w	r0, r0, #4
  e6:	2800      	cmp	r0, #0
  e8:	d1f9      	bne.n	de <EraseChip+0x5a>
  ea:	48b7      	ldr	r0, [pc, #732]	; (3c8 <ProgramPage+0x166>)
  ec:	68c0      	ldr	r0, [r0, #12]
  ee:	f020 0008 	bic.w	r0, r0, #8
  f2:	49b5      	ldr	r1, [pc, #724]	; (3c8 <ProgramPage+0x166>)
  f4:	60c8      	str	r0, [r1, #12]
  f6:	bf00      	nop
  f8:	48b7      	ldr	r0, [pc, #732]	; (3d8 <ProgramPage+0x176>)
  fa:	1f00      	subs	r0, r0, #4
  fc:	6800      	ldr	r0, [r0, #0]
  fe:	f000 0004 	and.w	r0, r0, #4
 102:	2800      	cmp	r0, #0
 104:	d1f8      	bne.n	f8 <EraseChip+0x74>
 106:	48b4      	ldr	r0, [pc, #720]	; (3d8 <ProgramPage+0x176>)
 108:	3808      	subs	r0, #8
 10a:	6800      	ldr	r0, [r0, #0]
 10c:	f020 0030 	bic.w	r0, r0, #48	; 0x30
 110:	49ad      	ldr	r1, [pc, #692]	; (3c8 <ProgramPage+0x166>)
 112:	f8c1 010c 	str.w	r0, [r1, #268]	; 0x10c
 116:	4608      	mov	r0, r1
 118:	f8d0 010c 	ldr.w	r0, [r0, #268]	; 0x10c
 11c:	f040 0008 	orr.w	r0, r0, #8
 120:	f8c1 010c 	str.w	r0, [r1, #268]	; 0x10c
 124:	4608      	mov	r0, r1
 126:	f8d0 010c 	ldr.w	r0, [r0, #268]	; 0x10c
 12a:	f040 0080 	orr.w	r0, r0, #128	; 0x80
 12e:	f8c1 010c 	str.w	r0, [r1, #268]	; 0x10c
 132:	bf00      	nop
 134:	48a8      	ldr	r0, [pc, #672]	; (3d8 <ProgramPage+0x176>)
 136:	1f00      	subs	r0, r0, #4
 138:	6800      	ldr	r0, [r0, #0]
 13a:	f000 0004 	and.w	r0, r0, #4
 13e:	2800      	cmp	r0, #0
 140:	d1f8      	bne.n	134 <EraseChip+0xb0>
 142:	48a5      	ldr	r0, [pc, #660]	; (3d8 <ProgramPage+0x176>)
 144:	3808      	subs	r0, #8
 146:	6800      	ldr	r0, [r0, #0]
 148:	f020 0008 	bic.w	r0, r0, #8
 14c:	499e      	ldr	r1, [pc, #632]	; (3c8 <ProgramPage+0x166>)
 14e:	f8c1 010c 	str.w	r0, [r1, #268]	; 0x10c
 152:	2000      	movs	r0, #0
 154:	4770      	bx	lr

00000156 <EraseSector>:
 156:	b510      	push	{r4, lr}
 158:	4601      	mov	r1, r0
 15a:	f3c1 4243 	ubfx	r2, r1, #17, #4
 15e:	f1b1 6f00 	cmp.w	r1, #134217728	; 0x8000000
 162:	d337      	bcc.n	1d4 <EraseSector+0x7e>
 164:	f1b1 6f01 	cmp.w	r1, #135266304	; 0x8100000
 168:	d234      	bcs.n	1d4 <EraseSector+0x7e>
 16a:	4897      	ldr	r0, [pc, #604]	; (3c8 <ProgramPage+0x166>)
 16c:	6940      	ldr	r0, [r0, #20]
 16e:	4b97      	ldr	r3, [pc, #604]	; (3cc <ProgramPage+0x16a>)
 170:	4318      	orrs	r0, r3
 172:	4b95      	ldr	r3, [pc, #596]	; (3c8 <ProgramPage+0x166>)
 174:	6158      	str	r0, [r3, #20]
 176:	bf00      	nop
 178:	4893      	ldr	r0, [pc, #588]	; (3c8 <ProgramPage+0x166>)
 17a:	6900      	ldr	r0, [r0, #16]
 17c:	f000 0004 	and.w	r0, r0, #4
 180:	2800      	cmp	r0, #0
 182:	d1f9      	bne.n	178 <EraseSector+0x22>
 184:	4890      	ldr	r0, [pc, #576]	; (3c8 <ProgramPage+0x166>)
 186:	68c0      	ldr	r0, [r0, #12]
 188:	f647 7330 	movw	r3, #32560	; 0x7f30
 18c:	4398      	bics	r0, r3
 18e:	4b8e      	ldr	r3, [pc, #568]	; (3c8 <ProgramPage+0x166>)
 190:	60d8      	str	r0, [r3, #12]
 192:	4618      	mov	r0, r3
 194:	68c0      	ldr	r0, [r0, #12]
 196:	2304      	movs	r3, #4
 198:	ea43 2302 	orr.w	r3, r3, r2, lsl #8
 19c:	4318      	orrs	r0, r3
 19e:	4b8a      	ldr	r3, [pc, #552]	; (3c8 <ProgramPage+0x166>)
 1a0:	60d8      	str	r0, [r3, #12]
 1a2:	4618      	mov	r0, r3
 1a4:	68c0      	ldr	r0, [r0, #12]
 1a6:	f040 0080 	orr.w	r0, r0, #128	; 0x80
 1aa:	60d8      	str	r0, [r3, #12]
 1ac:	bf00      	nop
 1ae:	4886      	ldr	r0, [pc, #536]	; (3c8 <ProgramPage+0x166>)
 1b0:	6900      	ldr	r0, [r0, #16]
 1b2:	f000 0004 	and.w	r0, r0, #4
 1b6:	2800      	cmp	r0, #0
 1b8:	d1f9      	bne.n	1ae <EraseSector+0x58>
 1ba:	4883      	ldr	r0, [pc, #524]	; (3c8 <ProgramPage+0x166>)
 1bc:	68c0      	ldr	r0, [r0, #12]
 1be:	f020 0004 	bic.w	r0, r0, #4
 1c2:	4b81      	ldr	r3, [pc, #516]	; (3c8 <ProgramPage+0x166>)
 1c4:	60d8      	str	r0, [r3, #12]
 1c6:	4618      	mov	r0, r3
 1c8:	6900      	ldr	r0, [r0, #16]
 1ca:	f000 0001 	and.w	r0, r0, #1
 1ce:	b3e8      	cbz	r0, 24c <EraseSector+0xf6>
 1d0:	2001      	movs	r0, #1
 1d2:	bd10      	pop	{r4, pc}
 1d4:	4880      	ldr	r0, [pc, #512]	; (3d8 <ProgramPage+0x176>)
 1d6:	6800      	ldr	r0, [r0, #0]
 1d8:	4b7c      	ldr	r3, [pc, #496]	; (3cc <ProgramPage+0x16a>)
 1da:	4318      	orrs	r0, r3
 1dc:	4b7a      	ldr	r3, [pc, #488]	; (3c8 <ProgramPage+0x166>)
 1de:	f8c3 0114 	str.w	r0, [r3, #276]	; 0x114
 1e2:	bf00      	nop
 1e4:	487c      	ldr	r0, [pc, #496]	; (3d8 <ProgramPage+0x176>)
 1e6:	1f00      	subs	r0, r0, #4
 1e8:	6800      	ldr	r0, [r0, #0]
 1ea:	f000 0004 	and.w	r0, r0, #4
 1ee:	2800      	cmp	r0, #0
 1f0:	d1f8      	bne.n	1e4 <EraseSector+0x8e>
 1f2:	4879      	ldr	r0, [pc, #484]	; (3d8 <ProgramPage+0x176>)
 1f4:	3808      	subs	r0, #8
 1f6:	6800      	ldr	r0, [r0, #0]
 1f8:	f647 7330 	movw	r3, #32560	; 0x7f30
 1fc:	4398      	bics	r0, r3
 1fe:	4b72      	ldr	r3, [pc, #456]	; (3c8 <ProgramPage+0x166>)
 200:	f8c3 010c 	str.w	r0, [r3, #268]	; 0x10c
 204:	4874      	ldr	r0, [pc, #464]	; (3d8 <ProgramPage+0x176>)
 206:	3808      	subs	r0, #8
 208:	6800      	ldr	r0, [r0, #0]
 20a:	f1a2 0308 	sub.w	r3, r2, #8
 20e:	2404      	movs	r4, #4
 210:	ea44 2303 	orr.w	r3, r4, r3, lsl #8
 214:	4318      	orrs	r0, r3
 216:	4b6c      	ldr	r3, [pc, #432]	; (3c8 <ProgramPage+0x166>)
 218:	f8c3 010c 	str.w	r0, [r3, #268]	; 0x10c
 21c:	4618      	mov	r0, r3
 21e:	f8d0 010c 	ldr.w	r0, [r0, #268]	; 0x10c
 222:	f040 0080 	orr.w	r0, r0, #128	; 0x80
 226:	f8c3 010c 	str.w	r0, [r3, #268]	; 0x10c
 22a:	bf00      	nop
 22c:	486a      	ldr	r0, [pc, #424]	; (3d8 <ProgramPage+0x176>)
 22e:	1f00      	subs	r0, r0, #4
 230:	6800      	ldr	r0, [r0, #0]
 232:	f000 0004 	and.w	r0, r0, #4
 236:	2800      	cmp	r0, #0
 238:	d1f8      	bne.n	22c <EraseSector+0xd6>
 23a:	4867      	ldr	r0, [pc, #412]	; (3d8 <ProgramPage+0x176>)
 23c:	3808      	subs	r0, #8
 23e:	6800      	ldr	r0, [r0, #0]
 240:	f020 0004 	bic.w	r0, r0, #4
 244:	4b60      	ldr	r3, [pc, #384]	; (3c8 <ProgramPage+0x166>)
 246:	f8c3 010c 	str.w	r0, [r3, #268]	; 0x10c
 24a:	e000      	b.n	24e <EraseSector+0xf8>
 24c:	e007      	b.n	25e <EraseSector+0x108>
 24e:	4862      	ldr	r0, [pc, #392]	; (3d8 <ProgramPage+0x176>)
 250:	1f00      	subs	r0, r0, #4
 252:	6800      	ldr	r0, [r0, #0]
 254:	f000 0001 	and.w	r0, r0, #1
 258:	b108      	cbz	r0, 25e <EraseSector+0x108>
 25a:	2001      	movs	r0, #1
 25c:	e7b9      	b.n	1d2 <EraseSector+0x7c>
 25e:	2000      	movs	r0, #0
 260:	e7b7      	b.n	1d2 <EraseSector+0x7c>

00000262 <ProgramPage>:
 262:	b5f0      	push	{r4, r5, r6, r7, lr}
 264:	4603      	mov	r3, r0
 266:	460c      	mov	r4, r1
 268:	4616      	mov	r6, r2
 26a:	4619      	mov	r1, r3
 26c:	4635      	mov	r5, r6
 26e:	2200      	movs	r2, #0
 270:	f1b3 6f00 	cmp.w	r3, #134217728	; 0x8000000
 274:	d30d      	bcc.n	292 <ProgramPage+0x30>
 276:	f1b3 6f01 	cmp.w	r3, #135266304	; 0x8100000
 27a:	d20a      	bcs.n	292 <ProgramPage+0x30>
 27c:	bf00      	nop
 27e:	4852      	ldr	r0, [pc, #328]	; (3c8 <ProgramPage+0x166>)
 280:	6900      	ldr	r0, [r0, #16]
 282:	f000 0004 	and.w	r0, r0, #4
 286:	2800      	cmp	r0, #0
 288:	d1f9      	bne.n	27e <ProgramPage+0x1c>
 28a:	4850      	ldr	r0, [pc, #320]	; (3cc <ProgramPage+0x16a>)
 28c:	4f4e      	ldr	r7, [pc, #312]	; (3c8 <ProgramPage+0x166>)
 28e:	6178      	str	r0, [r7, #20]
 290:	e00a      	b.n	2a8 <ProgramPage+0x46>
 292:	bf00      	nop
 294:	4850      	ldr	r0, [pc, #320]	; (3d8 <ProgramPage+0x176>)
 296:	1f00      	subs	r0, r0, #4
 298:	6800      	ldr	r0, [r0, #0]
 29a:	f000 0004 	and.w	r0, r0, #4
 29e:	2800      	cmp	r0, #0
 2a0:	d1f8      	bne.n	294 <ProgramPage+0x32>
 2a2:	484a      	ldr	r0, [pc, #296]	; (3cc <ProgramPage+0x16a>)
 2a4:	4f4c      	ldr	r7, [pc, #304]	; (3d8 <ProgramPage+0x176>)
 2a6:	6038      	str	r0, [r7, #0]
 2a8:	e087      	b.n	3ba <ProgramPage+0x158>
 2aa:	f1b3 6f00 	cmp.w	r3, #134217728	; 0x8000000
 2ae:	d30c      	bcc.n	2ca <ProgramPage+0x68>
 2b0:	f1b3 6f01 	cmp.w	r3, #135266304	; 0x8100000
 2b4:	d209      	bcs.n	2ca <ProgramPage+0x68>
 2b6:	4844      	ldr	r0, [pc, #272]	; (3c8 <ProgramPage+0x166>)
 2b8:	68c0      	ldr	r0, [r0, #12]
 2ba:	f647 7730 	movw	r7, #32560	; 0x7f30
 2be:	43b8      	bics	r0, r7
 2c0:	4f41      	ldr	r7, [pc, #260]	; (3c8 <ProgramPage+0x166>)
 2c2:	60f8      	str	r0, [r7, #12]
 2c4:	2002      	movs	r0, #2
 2c6:	60f8      	str	r0, [r7, #12]
 2c8:	e00c      	b.n	2e4 <ProgramPage+0x82>
 2ca:	4843      	ldr	r0, [pc, #268]	; (3d8 <ProgramPage+0x176>)
 2cc:	3808      	subs	r0, #8
 2ce:	6800      	ldr	r0, [r0, #0]
 2d0:	f647 7730 	movw	r7, #32560	; 0x7f30
 2d4:	43b8      	bics	r0, r7
 2d6:	4f3c      	ldr	r7, [pc, #240]	; (3c8 <ProgramPage+0x166>)
 2d8:	f8c7 010c 	str.w	r0, [r7, #268]	; 0x10c
 2dc:	2002      	movs	r0, #2
 2de:	4f3e      	ldr	r7, [pc, #248]	; (3d8 <ProgramPage+0x176>)
 2e0:	3f08      	subs	r7, #8
 2e2:	6038      	str	r0, [r7, #0]
 2e4:	2c20      	cmp	r4, #32
 2e6:	d30c      	bcc.n	302 <ProgramPage+0xa0>
 2e8:	2200      	movs	r2, #0
 2ea:	e006      	b.n	2fa <ProgramPage+0x98>
 2ec:	682f      	ldr	r7, [r5, #0]
 2ee:	6868      	ldr	r0, [r5, #4]
 2f0:	600f      	str	r7, [r1, #0]
 2f2:	6048      	str	r0, [r1, #4]
 2f4:	3508      	adds	r5, #8
 2f6:	3108      	adds	r1, #8
 2f8:	1c52      	adds	r2, r2, #1
 2fa:	2a04      	cmp	r2, #4
 2fc:	dbf6      	blt.n	2ec <ProgramPage+0x8a>
 2fe:	3c20      	subs	r4, #32
 300:	e013      	b.n	32a <ProgramPage+0xc8>
 302:	2200      	movs	r2, #0
 304:	e004      	b.n	310 <ProgramPage+0xae>
 306:	f815 0b01 	ldrb.w	r0, [r5], #1
 30a:	f801 0b01 	strb.w	r0, [r1], #1
 30e:	1c52      	adds	r2, r2, #1
 310:	42a2      	cmp	r2, r4
 312:	d3f8      	bcc.n	306 <ProgramPage+0xa4>
 314:	2200      	movs	r2, #0
 316:	e003      	b.n	320 <ProgramPage+0xbe>
 318:	20ff      	movs	r0, #255	; 0xff
 31a:	f801 0b01 	strb.w	r0, [r1], #1
 31e:	1c52      	adds	r2, r2, #1
 320:	f1c4 0020 	rsb	r0, r4, #32
 324:	4290      	cmp	r0, r2
 326:	d8f7      	bhi.n	318 <ProgramPage+0xb6>
 328:	2400      	movs	r4, #0
 32a:	f7ff fe69 	bl	0 <DSB>
 32e:	f1b3 6f00 	cmp.w	r3, #134217728	; 0x8000000
 332:	d30a      	bcc.n	34a <ProgramPage+0xe8>
 334:	f1b3 6f01 	cmp.w	r3, #135266304	; 0x8100000
 338:	d207      	bcs.n	34a <ProgramPage+0xe8>
 33a:	bf00      	nop
 33c:	4822      	ldr	r0, [pc, #136]	; (3c8 <ProgramPage+0x166>)
 33e:	6900      	ldr	r0, [r0, #16]
 340:	f000 0004 	and.w	r0, r0, #4
 344:	2800      	cmp	r0, #0
 346:	d1f9      	bne.n	33c <ProgramPage+0xda>
 348:	e007      	b.n	35a <ProgramPage+0xf8>
 34a:	bf00      	nop
 34c:	4822      	ldr	r0, [pc, #136]	; (3d8 <ProgramPage+0x176>)
 34e:	1f00      	subs	r0, r0, #4
 350:	6800      	ldr	r0, [r0, #0]
 352:	f000 0004 	and.w	r0, r0, #4
 356:	2800      	cmp	r0, #0
 358:	d1f8      	bne.n	34c <ProgramPage+0xea>
 35a:	481b      	ldr	r0, [pc, #108]	; (3c8 <ProgramPage+0x166>)
 35c:	6900      	ldr	r0, [r0, #16]
 35e:	2000      	movs	r0, #0
 360:	b1b0      	cbz	r0, 390 <ProgramPage+0x12e>
 362:	f1b3 6f00 	cmp.w	r3, #134217728	; 0x8000000
 366:	d309      	bcc.n	37c <ProgramPage+0x11a>
 368:	f1b3 6f01 	cmp.w	r3, #135266304	; 0x8100000
 36c:	d206      	bcs.n	37c <ProgramPage+0x11a>
 36e:	4816      	ldr	r0, [pc, #88]	; (3c8 <ProgramPage+0x166>)
 370:	68c0      	ldr	r0, [r0, #12]
 372:	f020 0002 	bic.w	r0, r0, #2
 376:	4f14      	ldr	r7, [pc, #80]	; (3c8 <ProgramPage+0x166>)
 378:	60f8      	str	r0, [r7, #12]
 37a:	e007      	b.n	38c <ProgramPage+0x12a>
 37c:	4816      	ldr	r0, [pc, #88]	; (3d8 <ProgramPage+0x176>)
 37e:	3808      	subs	r0, #8
 380:	6800      	ldr	r0, [r0, #0]
 382:	f020 0002 	bic.w	r0, r0, #2
 386:	4f10      	ldr	r7, [pc, #64]	; (3c8 <ProgramPage+0x166>)
 388:	f8c7 010c 	str.w	r0, [r7, #268]	; 0x10c
 38c:	2001      	movs	r0, #1
 38e:	bdf0      	pop	{r4, r5, r6, r7, pc}
 390:	f1b3 6f00 	cmp.w	r3, #134217728	; 0x8000000
 394:	d309      	bcc.n	3aa <ProgramPage+0x148>
 396:	f1b3 6f01 	cmp.w	r3, #135266304	; 0x8100000
 39a:	d206      	bcs.n	3aa <ProgramPage+0x148>
 39c:	480a      	ldr	r0, [pc, #40]	; (3c8 <ProgramPage+0x166>)
 39e:	68c0      	ldr	r0, [r0, #12]
 3a0:	f020 0002 	bic.w	r0, r0, #2
 3a4:	4f08      	ldr	r7, [pc, #32]	; (3c8 <ProgramPage+0x166>)
 3a6:	60f8      	str	r0, [r7, #12]
 3a8:	e007      	b.n	3ba <ProgramPage+0x158>
 3aa:	480b      	ldr	r0, [pc, #44]	; (3d8 <ProgramPage+0x176>)
 3ac:	3808      	subs	r0, #8
 3ae:	6800      	ldr	r0, [r0, #0]
 3b0:	f020 0002 	bic.w	r0, r0, #2
 3b4:	4f04      	ldr	r7, [pc, #16]	; (3c8 <ProgramPage+0x166>)
 3b6:	f8c7 010c 	str.w	r0, [r7, #268]	; 0x10c
 3ba:	2c00      	cmp	r4, #0
 3bc:	f47f af75 	bne.w	2aa <ProgramPage+0x48>
 3c0:	2000      	movs	r0, #0
 3c2:	e7e4      	b.n	38e <ProgramPage+0x12c>
 3c4:	58024594 	.word	0x58024594
 3c8:	52002000 	.word	0x52002000
 3cc:	0fef0000 	.word	0x0fef0000
 3d0:	45670123 	.word	0x45670123
 3d4:	cdef89ab 	.word	0xcdef89ab
 3d8:	52002114 	.word	0x52002114
